
submit:     file format elf32-i386


Disassembly of section .init:

08048880 <_init>:
 8048880:	55                   	push   %ebp
 8048881:	89 e5                	mov    %esp,%ebp
 8048883:	83 ec 08             	sub    $0x8,%esp
 8048886:	e8 a9 02 00 00       	call   8048b34 <call_gmon_start>
 804888b:	e8 40 03 00 00       	call   8048bd0 <frame_dummy>
 8048890:	e8 0b 13 00 00       	call   8049ba0 <__do_global_ctors_aux>
 8048895:	c9                   	leave  
 8048896:	c3                   	ret    

Disassembly of section .plt:

08048898 <regexec@plt-0x10>:
 8048898:	ff 35 d0 a2 04 08    	pushl  0x804a2d0
 804889e:	ff 25 d4 a2 04 08    	jmp    *0x804a2d4
 80488a4:	00 00                	add    %al,(%eax)
	...

080488a8 <regexec@plt>:
 80488a8:	ff 25 d8 a2 04 08    	jmp    *0x804a2d8
 80488ae:	68 00 00 00 00       	push   $0x0
 80488b3:	e9 e0 ff ff ff       	jmp    8048898 <_init+0x18>

080488b8 <fgetc@plt>:
 80488b8:	ff 25 dc a2 04 08    	jmp    *0x804a2dc
 80488be:	68 08 00 00 00       	push   $0x8
 80488c3:	e9 d0 ff ff ff       	jmp    8048898 <_init+0x18>

080488c8 <__register_frame_info@plt>:
 80488c8:	ff 25 e0 a2 04 08    	jmp    *0x804a2e0
 80488ce:	68 10 00 00 00       	push   $0x10
 80488d3:	e9 c0 ff ff ff       	jmp    8048898 <_init+0x18>

080488d8 <fprintf@plt>:
 80488d8:	ff 25 e4 a2 04 08    	jmp    *0x804a2e4
 80488de:	68 18 00 00 00       	push   $0x18
 80488e3:	e9 b0 ff ff ff       	jmp    8048898 <_init+0x18>

080488e8 <fork@plt>:
 80488e8:	ff 25 e8 a2 04 08    	jmp    *0x804a2e8
 80488ee:	68 20 00 00 00       	push   $0x20
 80488f3:	e9 a0 ff ff ff       	jmp    8048898 <_init+0x18>

080488f8 <unlink@plt>:
 80488f8:	ff 25 ec a2 04 08    	jmp    *0x804a2ec
 80488fe:	68 28 00 00 00       	push   $0x28
 8048903:	e9 90 ff ff ff       	jmp    8048898 <_init+0x18>

08048908 <getpwuid@plt>:
 8048908:	ff 25 f0 a2 04 08    	jmp    *0x804a2f0
 804890e:	68 30 00 00 00       	push   $0x30
 8048913:	e9 80 ff ff ff       	jmp    8048898 <_init+0x18>

08048918 <creat@plt>:
 8048918:	ff 25 f4 a2 04 08    	jmp    *0x804a2f4
 804891e:	68 38 00 00 00       	push   $0x38
 8048923:	e9 70 ff ff ff       	jmp    8048898 <_init+0x18>

08048928 <__errno_location@plt>:
 8048928:	ff 25 f8 a2 04 08    	jmp    *0x804a2f8
 804892e:	68 40 00 00 00       	push   $0x40
 8048933:	e9 60 ff ff ff       	jmp    8048898 <_init+0x18>

08048938 <malloc@plt>:
 8048938:	ff 25 fc a2 04 08    	jmp    *0x804a2fc
 804893e:	68 48 00 00 00       	push   $0x48
 8048943:	e9 50 ff ff ff       	jmp    8048898 <_init+0x18>

08048948 <index@plt>:
 8048948:	ff 25 00 a3 04 08    	jmp    *0x804a300
 804894e:	68 50 00 00 00       	push   $0x50
 8048953:	e9 40 ff ff ff       	jmp    8048898 <_init+0x18>

08048958 <__deregister_frame_info@plt>:
 8048958:	ff 25 04 a3 04 08    	jmp    *0x804a304
 804895e:	68 58 00 00 00       	push   $0x58
 8048963:	e9 30 ff ff ff       	jmp    8048898 <_init+0x18>

08048968 <link@plt>:
 8048968:	ff 25 08 a3 04 08    	jmp    *0x804a308
 804896e:	68 60 00 00 00       	push   $0x60
 8048973:	e9 20 ff ff ff       	jmp    8048898 <_init+0x18>

08048978 <__xstat@plt>:
 8048978:	ff 25 0c a3 04 08    	jmp    *0x804a30c
 804897e:	68 68 00 00 00       	push   $0x68
 8048983:	e9 10 ff ff ff       	jmp    8048898 <_init+0x18>

08048988 <waitpid@plt>:
 8048988:	ff 25 10 a3 04 08    	jmp    *0x804a310
 804898e:	68 70 00 00 00       	push   $0x70
 8048993:	e9 00 ff ff ff       	jmp    8048898 <_init+0x18>

08048998 <fputs@plt>:
 8048998:	ff 25 14 a3 04 08    	jmp    *0x804a314
 804899e:	68 78 00 00 00       	push   $0x78
 80489a3:	e9 f0 fe ff ff       	jmp    8048898 <_init+0x18>

080489a8 <strlen@plt>:
 80489a8:	ff 25 18 a3 04 08    	jmp    *0x804a318
 80489ae:	68 80 00 00 00       	push   $0x80
 80489b3:	e9 e0 fe ff ff       	jmp    8048898 <_init+0x18>

080489b8 <execvp@plt>:
 80489b8:	ff 25 1c a3 04 08    	jmp    *0x804a31c
 80489be:	68 88 00 00 00       	push   $0x88
 80489c3:	e9 d0 fe ff ff       	jmp    8048898 <_init+0x18>

080489c8 <strncmp@plt>:
 80489c8:	ff 25 20 a3 04 08    	jmp    *0x804a320
 80489ce:	68 90 00 00 00       	push   $0x90
 80489d3:	e9 c0 fe ff ff       	jmp    8048898 <_init+0x18>

080489d8 <fputc@plt>:
 80489d8:	ff 25 24 a3 04 08    	jmp    *0x804a324
 80489de:	68 98 00 00 00       	push   $0x98
 80489e3:	e9 b0 fe ff ff       	jmp    8048898 <_init+0x18>

080489e8 <__libc_start_main@plt>:
 80489e8:	ff 25 28 a3 04 08    	jmp    *0x804a328
 80489ee:	68 a0 00 00 00       	push   $0xa0
 80489f3:	e9 a0 fe ff ff       	jmp    8048898 <_init+0x18>

080489f8 <strcat@plt>:
 80489f8:	ff 25 2c a3 04 08    	jmp    *0x804a32c
 80489fe:	68 a8 00 00 00       	push   $0xa8
 8048a03:	e9 90 fe ff ff       	jmp    8048898 <_init+0x18>

08048a08 <printf@plt>:
 8048a08:	ff 25 30 a3 04 08    	jmp    *0x804a330
 8048a0e:	68 b0 00 00 00       	push   $0xb0
 8048a13:	e9 80 fe ff ff       	jmp    8048898 <_init+0x18>

08048a18 <getuid@plt>:
 8048a18:	ff 25 34 a3 04 08    	jmp    *0x804a334
 8048a1e:	68 b8 00 00 00       	push   $0xb8
 8048a23:	e9 70 fe ff ff       	jmp    8048898 <_init+0x18>

08048a28 <fclose@plt>:
 8048a28:	ff 25 38 a3 04 08    	jmp    *0x804a338
 8048a2e:	68 c0 00 00 00       	push   $0xc0
 8048a33:	e9 60 fe ff ff       	jmp    8048898 <_init+0x18>

08048a38 <getopt_long@plt>:
 8048a38:	ff 25 3c a3 04 08    	jmp    *0x804a33c
 8048a3e:	68 c8 00 00 00       	push   $0xc8
 8048a43:	e9 50 fe ff ff       	jmp    8048898 <_init+0x18>

08048a48 <getgid@plt>:
 8048a48:	ff 25 40 a3 04 08    	jmp    *0x804a340
 8048a4e:	68 d0 00 00 00       	push   $0xd0
 8048a53:	e9 40 fe ff ff       	jmp    8048898 <_init+0x18>

08048a58 <snprintf@plt>:
 8048a58:	ff 25 44 a3 04 08    	jmp    *0x804a344
 8048a5e:	68 d8 00 00 00       	push   $0xd8
 8048a63:	e9 30 fe ff ff       	jmp    8048898 <_init+0x18>

08048a68 <regcomp@plt>:
 8048a68:	ff 25 48 a3 04 08    	jmp    *0x804a348
 8048a6e:	68 e0 00 00 00       	push   $0xe0
 8048a73:	e9 20 fe ff ff       	jmp    8048898 <_init+0x18>

08048a78 <free@plt>:
 8048a78:	ff 25 4c a3 04 08    	jmp    *0x804a34c
 8048a7e:	68 e8 00 00 00       	push   $0xe8
 8048a83:	e9 10 fe ff ff       	jmp    8048898 <_init+0x18>

08048a88 <memset@plt>:
 8048a88:	ff 25 50 a3 04 08    	jmp    *0x804a350
 8048a8e:	68 f0 00 00 00       	push   $0xf0
 8048a93:	e9 00 fe ff ff       	jmp    8048898 <_init+0x18>

08048a98 <rindex@plt>:
 8048a98:	ff 25 54 a3 04 08    	jmp    *0x804a354
 8048a9e:	68 f8 00 00 00       	push   $0xf8
 8048aa3:	e9 f0 fd ff ff       	jmp    8048898 <_init+0x18>

08048aa8 <fopen@plt>:
 8048aa8:	ff 25 58 a3 04 08    	jmp    *0x804a358
 8048aae:	68 00 01 00 00       	push   $0x100
 8048ab3:	e9 e0 fd ff ff       	jmp    8048898 <_init+0x18>

08048ab8 <sprintf@plt>:
 8048ab8:	ff 25 5c a3 04 08    	jmp    *0x804a35c
 8048abe:	68 08 01 00 00       	push   $0x108
 8048ac3:	e9 d0 fd ff ff       	jmp    8048898 <_init+0x18>

08048ac8 <fchown@plt>:
 8048ac8:	ff 25 60 a3 04 08    	jmp    *0x804a360
 8048ace:	68 10 01 00 00       	push   $0x110
 8048ad3:	e9 c0 fd ff ff       	jmp    8048898 <_init+0x18>

08048ad8 <realpath@plt>:
 8048ad8:	ff 25 64 a3 04 08    	jmp    *0x804a364
 8048ade:	68 18 01 00 00       	push   $0x118
 8048ae3:	e9 b0 fd ff ff       	jmp    8048898 <_init+0x18>

08048ae8 <__gmon_start__@plt>:
 8048ae8:	ff 25 68 a3 04 08    	jmp    *0x804a368
 8048aee:	68 20 01 00 00       	push   $0x120
 8048af3:	e9 a0 fd ff ff       	jmp    8048898 <_init+0x18>

08048af8 <strcpy@plt>:
 8048af8:	ff 25 6c a3 04 08    	jmp    *0x804a36c
 8048afe:	68 28 01 00 00       	push   $0x128
 8048b03:	e9 90 fd ff ff       	jmp    8048898 <_init+0x18>

Disassembly of section .text:

08048b10 <_start>:
 8048b10:	31 ed                	xor    %ebp,%ebp
 8048b12:	5e                   	pop    %esi
 8048b13:	89 e1                	mov    %esp,%ecx
 8048b15:	83 e4 f0             	and    $0xfffffff0,%esp
 8048b18:	50                   	push   %eax
 8048b19:	54                   	push   %esp
 8048b1a:	52                   	push   %edx
 8048b1b:	68 b0 9a 04 08       	push   $0x8049ab0
 8048b20:	68 00 9b 04 08       	push   $0x8049b00
 8048b25:	51                   	push   %ecx
 8048b26:	56                   	push   %esi
 8048b27:	68 40 99 04 08       	push   $0x8049940
 8048b2c:	e8 b7 fe ff ff       	call   80489e8 <__libc_start_main@plt>
 8048b31:	f4                   	hlt    
 8048b32:	90                   	nop
 8048b33:	90                   	nop

08048b34 <call_gmon_start>:
 8048b34:	55                   	push   %ebp
 8048b35:	89 e5                	mov    %esp,%ebp
 8048b37:	53                   	push   %ebx
 8048b38:	83 ec 04             	sub    $0x4,%esp
 8048b3b:	e8 00 00 00 00       	call   8048b40 <call_gmon_start+0xc>
 8048b40:	5b                   	pop    %ebx
 8048b41:	81 c3 8c 17 00 00    	add    $0x178c,%ebx
 8048b47:	8b 93 fc ff ff ff    	mov    -0x4(%ebx),%edx
 8048b4d:	85 d2                	test   %edx,%edx
 8048b4f:	74 05                	je     8048b56 <call_gmon_start+0x22>
 8048b51:	e8 92 ff ff ff       	call   8048ae8 <__gmon_start__@plt>
 8048b56:	58                   	pop    %eax
 8048b57:	5b                   	pop    %ebx
 8048b58:	c9                   	leave  
 8048b59:	c3                   	ret    
 8048b5a:	90                   	nop
 8048b5b:	90                   	nop
 8048b5c:	90                   	nop
 8048b5d:	90                   	nop
 8048b5e:	90                   	nop
 8048b5f:	90                   	nop

08048b60 <__do_global_dtors_aux>:
 8048b60:	55                   	push   %ebp
 8048b61:	89 e5                	mov    %esp,%ebp
 8048b63:	83 ec 08             	sub    $0x8,%esp
 8048b66:	83 3d 7c a3 04 08 00 	cmpl   $0x0,0x804a37c
 8048b6d:	75 3e                	jne    8048bad <__do_global_dtors_aux+0x4d>
 8048b6f:	eb 12                	jmp    8048b83 <__do_global_dtors_aux+0x23>
 8048b71:	a1 78 a3 04 08       	mov    0x804a378,%eax
 8048b76:	8d 50 04             	lea    0x4(%eax),%edx
 8048b79:	89 15 78 a3 04 08    	mov    %edx,0x804a378
 8048b7f:	8b 00                	mov    (%eax),%eax
 8048b81:	ff d0                	call   *%eax
 8048b83:	a1 78 a3 04 08       	mov    0x804a378,%eax
 8048b88:	83 38 00             	cmpl   $0x0,(%eax)
 8048b8b:	75 e4                	jne    8048b71 <__do_global_dtors_aux+0x11>
 8048b8d:	b8 58 89 04 08       	mov    $0x8048958,%eax
 8048b92:	85 c0                	test   %eax,%eax
 8048b94:	74 0d                	je     8048ba3 <__do_global_dtors_aux+0x43>
 8048b96:	83 c4 f4             	add    $0xfffffff4,%esp
 8048b99:	68 00 a0 04 08       	push   $0x804a000
 8048b9e:	e8 b5 fd ff ff       	call   8048958 <__deregister_frame_info@plt>
 8048ba3:	c7 05 7c a3 04 08 01 	movl   $0x1,0x804a37c
 8048baa:	00 00 00 
 8048bad:	89 ec                	mov    %ebp,%esp
 8048baf:	5d                   	pop    %ebp
 8048bb0:	c3                   	ret    
 8048bb1:	eb 0d                	jmp    8048bc0 <fini_dummy>
 8048bb3:	90                   	nop
 8048bb4:	90                   	nop
 8048bb5:	90                   	nop
 8048bb6:	90                   	nop
 8048bb7:	90                   	nop
 8048bb8:	90                   	nop
 8048bb9:	90                   	nop
 8048bba:	90                   	nop
 8048bbb:	90                   	nop
 8048bbc:	90                   	nop
 8048bbd:	90                   	nop
 8048bbe:	90                   	nop
 8048bbf:	90                   	nop

08048bc0 <fini_dummy>:
 8048bc0:	55                   	push   %ebp
 8048bc1:	89 e5                	mov    %esp,%ebp
 8048bc3:	83 ec 08             	sub    $0x8,%esp
 8048bc6:	89 ec                	mov    %ebp,%esp
 8048bc8:	5d                   	pop    %ebp
 8048bc9:	c3                   	ret    
 8048bca:	8d b6 00 00 00 00    	lea    0x0(%esi),%esi

08048bd0 <frame_dummy>:
 8048bd0:	55                   	push   %ebp
 8048bd1:	89 e5                	mov    %esp,%ebp
 8048bd3:	83 ec 08             	sub    $0x8,%esp
 8048bd6:	b8 c8 88 04 08       	mov    $0x80488c8,%eax
 8048bdb:	85 c0                	test   %eax,%eax
 8048bdd:	74 12                	je     8048bf1 <frame_dummy+0x21>
 8048bdf:	83 c4 f8             	add    $0xfffffff8,%esp
 8048be2:	68 84 a3 04 08       	push   $0x804a384
 8048be7:	68 00 a0 04 08       	push   $0x804a000
 8048bec:	e8 d7 fc ff ff       	call   80488c8 <__register_frame_info@plt>
 8048bf1:	89 ec                	mov    %ebp,%esp
 8048bf3:	5d                   	pop    %ebp
 8048bf4:	c3                   	ret    
 8048bf5:	8d 74 26 00          	lea    0x0(%esi,%eiz,1),%esi
 8048bf9:	8d bc 27 00 00 00 00 	lea    0x0(%edi,%eiz,1),%edi

08048c00 <init_dummy>:
 8048c00:	55                   	push   %ebp
 8048c01:	89 e5                	mov    %esp,%ebp
 8048c03:	83 ec 08             	sub    $0x8,%esp
 8048c06:	89 ec                	mov    %ebp,%esp
 8048c08:	5d                   	pop    %ebp
 8048c09:	c3                   	ret    
 8048c0a:	90                   	nop
 8048c0b:	90                   	nop
 8048c0c:	90                   	nop
 8048c0d:	90                   	nop
 8048c0e:	90                   	nop
 8048c0f:	90                   	nop

08048c10 <print_version>:
 8048c10:	55                   	push   %ebp
 8048c11:	89 e5                	mov    %esp,%ebp
 8048c13:	81 ec 18 01 00 00    	sub    $0x118,%esp
 8048c19:	8b 45 08             	mov    0x8(%ebp),%eax
 8048c1c:	89 85 fc fe ff ff    	mov    %eax,-0x104(%ebp)
 8048c22:	83 c4 f4             	add    $0xfffffff4,%esp
 8048c25:	8b 45 08             	mov    0x8(%ebp),%eax
 8048c28:	50                   	push   %eax
 8048c29:	8b 85 fc fe ff ff    	mov    -0x104(%ebp),%eax
 8048c2f:	50                   	push   %eax
 8048c30:	68 20 9c 04 08       	push   $0x8049c20
 8048c35:	68 80 00 00 00       	push   $0x80
 8048c3a:	8d 85 00 ff ff ff    	lea    -0x100(%ebp),%eax
 8048c40:	50                   	push   %eax
 8048c41:	e8 12 fe ff ff       	call   8048a58 <snprintf@plt>
 8048c46:	83 c4 20             	add    $0x20,%esp
 8048c49:	83 c4 f8             	add    $0xfffffff8,%esp
 8048c4c:	8d 85 00 ff ff ff    	lea    -0x100(%ebp),%eax
 8048c52:	50                   	push   %eax
 8048c53:	8d 45 80             	lea    -0x80(%ebp),%eax
 8048c56:	50                   	push   %eax
 8048c57:	e8 5c fe ff ff       	call   8048ab8 <sprintf@plt>
 8048c5c:	83 c4 10             	add    $0x10,%esp
 8048c5f:	83 c4 f4             	add    $0xfffffff4,%esp
 8048c62:	8d 45 80             	lea    -0x80(%ebp),%eax
 8048c65:	50                   	push   %eax
 8048c66:	e8 9d fd ff ff       	call   8048a08 <printf@plt>
 8048c6b:	83 c4 10             	add    $0x10,%esp
 8048c6e:	89 ec                	mov    %ebp,%esp
 8048c70:	5d                   	pop    %ebp
 8048c71:	c3                   	ret    
 8048c72:	8d b4 26 00 00 00 00 	lea    0x0(%esi,%eiz,1),%esi
 8048c79:	8d bc 27 00 00 00 00 	lea    0x0(%edi,%eiz,1),%edi

08048c80 <run_cmd>:
 8048c80:	55                   	push   %ebp
 8048c81:	89 e5                	mov    %esp,%ebp
 8048c83:	83 ec 48             	sub    $0x48,%esp
 8048c86:	c7 45 d4 01 00 00 00 	movl   $0x1,-0x2c(%ebp)
 8048c8d:	8d 45 0c             	lea    0xc(%ebp),%eax
 8048c90:	89 45 fc             	mov    %eax,-0x4(%ebp)
 8048c93:	83 7d d4 06          	cmpl   $0x6,-0x2c(%ebp)
 8048c97:	7f 28                	jg     8048cc1 <run_cmd+0x41>
 8048c99:	8b 45 d4             	mov    -0x2c(%ebp),%eax
 8048c9c:	89 c2                	mov    %eax,%edx
 8048c9e:	8d 04 95 00 00 00 00 	lea    0x0(,%edx,4),%eax
 8048ca5:	8d 55 dc             	lea    -0x24(%ebp),%edx
 8048ca8:	01 d0                	add    %edx,%eax
 8048caa:	83 45 fc 04          	addl   $0x4,-0x4(%ebp)
 8048cae:	ff 45 d4             	incl   -0x2c(%ebp)
 8048cb1:	8b 55 fc             	mov    -0x4(%ebp),%edx
 8048cb4:	83 c2 fc             	add    $0xfffffffc,%edx
 8048cb7:	8b 0a                	mov    (%edx),%ecx
 8048cb9:	89 08                	mov    %ecx,(%eax)
 8048cbb:	85 c9                	test   %ecx,%ecx
 8048cbd:	75 04                	jne    8048cc3 <run_cmd+0x43>
 8048cbf:	eb 00                	jmp    8048cc1 <run_cmd+0x41>
 8048cc1:	eb 02                	jmp    8048cc5 <run_cmd+0x45>
 8048cc3:	eb ce                	jmp    8048c93 <run_cmd+0x13>
 8048cc5:	c7 45 f8 00 00 00 00 	movl   $0x0,-0x8(%ebp)
 8048ccc:	83 c4 f8             	add    $0xfffffff8,%esp
 8048ccf:	6a 2f                	push   $0x2f
 8048cd1:	8b 45 08             	mov    0x8(%ebp),%eax
 8048cd4:	50                   	push   %eax
 8048cd5:	e8 be fd ff ff       	call   8048a98 <rindex@plt>
 8048cda:	83 c4 10             	add    $0x10,%esp
 8048cdd:	89 c0                	mov    %eax,%eax
 8048cdf:	89 45 dc             	mov    %eax,-0x24(%ebp)
 8048ce2:	83 7d dc 00          	cmpl   $0x0,-0x24(%ebp)
 8048ce6:	75 08                	jne    8048cf0 <run_cmd+0x70>
 8048ce8:	8b 45 08             	mov    0x8(%ebp),%eax
 8048ceb:	89 45 dc             	mov    %eax,-0x24(%ebp)
 8048cee:	eb 03                	jmp    8048cf3 <run_cmd+0x73>
 8048cf0:	ff 45 dc             	incl   -0x24(%ebp)
 8048cf3:	e8 f0 fb ff ff       	call   80488e8 <fork@plt>
 8048cf8:	89 c0                	mov    %eax,%eax
 8048cfa:	89 45 d8             	mov    %eax,-0x28(%ebp)
 8048cfd:	83 7d d8 00          	cmpl   $0x0,-0x28(%ebp)
 8048d01:	7d 1d                	jge    8048d20 <run_cmd+0xa0>
 8048d03:	83 c4 f8             	add    $0xfffffff8,%esp
 8048d06:	68 4a 9c 04 08       	push   $0x8049c4a
 8048d0b:	a1 80 a3 04 08       	mov    0x804a380,%eax
 8048d10:	50                   	push   %eax
 8048d11:	e8 c2 fb ff ff       	call   80488d8 <fprintf@plt>
 8048d16:	83 c4 10             	add    $0x10,%esp
 8048d19:	b8 01 00 00 00       	mov    $0x1,%eax
 8048d1e:	eb 74                	jmp    8048d94 <run_cmd+0x114>
 8048d20:	83 7d d8 00          	cmpl   $0x0,-0x28(%ebp)
 8048d24:	7e 4c                	jle    8048d72 <run_cmd+0xf2>
 8048d26:	83 c4 fc             	add    $0xfffffffc,%esp
 8048d29:	6a 00                	push   $0x0
 8048d2b:	8d 45 d0             	lea    -0x30(%ebp),%eax
 8048d2e:	50                   	push   %eax
 8048d2f:	8b 45 d8             	mov    -0x28(%ebp),%eax
 8048d32:	50                   	push   %eax
 8048d33:	e8 50 fc ff ff       	call   8048988 <waitpid@plt>
 8048d38:	83 c4 10             	add    $0x10,%esp
 8048d3b:	8b 45 d0             	mov    -0x30(%ebp),%eax
 8048d3e:	89 45 cc             	mov    %eax,-0x34(%ebp)
 8048d41:	8b 45 cc             	mov    -0x34(%ebp),%eax
 8048d44:	83 e0 7f             	and    $0x7f,%eax
 8048d47:	85 c0                	test   %eax,%eax
 8048d49:	75 19                	jne    8048d64 <run_cmd+0xe4>
 8048d4b:	8b 45 d0             	mov    -0x30(%ebp),%eax
 8048d4e:	89 45 c8             	mov    %eax,-0x38(%ebp)
 8048d51:	8b 45 c8             	mov    -0x38(%ebp),%eax
 8048d54:	25 00 ff 00 00       	and    $0xff00,%eax
 8048d59:	89 c2                	mov    %eax,%edx
 8048d5b:	c1 fa 08             	sar    $0x8,%edx
 8048d5e:	85 d2                	test   %edx,%edx
 8048d60:	7c 02                	jl     8048d64 <run_cmd+0xe4>
 8048d62:	eb 0c                	jmp    8048d70 <run_cmd+0xf0>
 8048d64:	b8 01 00 00 00       	mov    $0x1,%eax
 8048d69:	eb 29                	jmp    8048d94 <run_cmd+0x114>
 8048d6b:	90                   	nop
 8048d6c:	8d 74 26 00          	lea    0x0(%esi,%eiz,1),%esi
 8048d70:	eb 1e                	jmp    8048d90 <run_cmd+0x110>
 8048d72:	83 c4 f8             	add    $0xfffffff8,%esp
 8048d75:	8d 45 dc             	lea    -0x24(%ebp),%eax
 8048d78:	50                   	push   %eax
 8048d79:	8b 45 08             	mov    0x8(%ebp),%eax
 8048d7c:	50                   	push   %eax
 8048d7d:	e8 36 fc ff ff       	call   80489b8 <execvp@plt>
 8048d82:	83 c4 10             	add    $0x10,%esp
 8048d85:	b8 01 00 00 00       	mov    $0x1,%eax
 8048d8a:	eb 08                	jmp    8048d94 <run_cmd+0x114>
 8048d8c:	8d 74 26 00          	lea    0x0(%esi,%eiz,1),%esi
 8048d90:	31 c0                	xor    %eax,%eax
 8048d92:	eb 00                	jmp    8048d94 <run_cmd+0x114>
 8048d94:	89 ec                	mov    %ebp,%esp
 8048d96:	5d                   	pop    %ebp
 8048d97:	c3                   	ret    
 8048d98:	90                   	nop
 8048d99:	8d b4 26 00 00 00 00 	lea    0x0(%esi,%eiz,1),%esi

08048da0 <copy_file>:
 8048da0:	55                   	push   %ebp
 8048da1:	89 e5                	mov    %esp,%ebp
 8048da3:	81 ec 28 08 00 00    	sub    $0x828,%esp
 8048da9:	83 c4 f8             	add    $0xfffffff8,%esp
 8048dac:	8b 45 0c             	mov    0xc(%ebp),%eax
 8048daf:	50                   	push   %eax
 8048db0:	8b 45 08             	mov    0x8(%ebp),%eax
 8048db3:	50                   	push   %eax
 8048db4:	e8 af fb ff ff       	call   8048968 <link@plt>
 8048db9:	83 c4 10             	add    $0x10,%esp
 8048dbc:	89 c0                	mov    %eax,%eax
 8048dbe:	85 c0                	test   %eax,%eax
 8048dc0:	75 1e                	jne    8048de0 <copy_file+0x40>
 8048dc2:	83 c4 f4             	add    $0xfffffff4,%esp
 8048dc5:	8b 45 08             	mov    0x8(%ebp),%eax
 8048dc8:	50                   	push   %eax
 8048dc9:	e8 2a fb ff ff       	call   80488f8 <unlink@plt>
 8048dce:	83 c4 10             	add    $0x10,%esp
 8048dd1:	31 c0                	xor    %eax,%eax
 8048dd3:	e9 58 01 00 00       	jmp    8048f30 <copy_file+0x190>
 8048dd8:	e9 4d 01 00 00       	jmp    8048f2a <copy_file+0x18a>
 8048ddd:	8d 76 00             	lea    0x0(%esi),%esi
 8048de0:	83 c4 f8             	add    $0xfffffff8,%esp
 8048de3:	68 57 9c 04 08       	push   $0x8049c57
 8048de8:	8b 45 08             	mov    0x8(%ebp),%eax
 8048deb:	50                   	push   %eax
 8048dec:	e8 b7 fc ff ff       	call   8048aa8 <fopen@plt>
 8048df1:	83 c4 10             	add    $0x10,%esp
 8048df4:	89 c0                	mov    %eax,%eax
 8048df6:	89 85 f4 f7 ff ff    	mov    %eax,-0x80c(%ebp)
 8048dfc:	83 bd f4 f7 ff ff 00 	cmpl   $0x0,-0x80c(%ebp)
 8048e03:	75 2b                	jne    8048e30 <copy_file+0x90>
 8048e05:	83 c4 fc             	add    $0xfffffffc,%esp
 8048e08:	8b 45 08             	mov    0x8(%ebp),%eax
 8048e0b:	50                   	push   %eax
 8048e0c:	68 60 9c 04 08       	push   $0x8049c60
 8048e11:	a1 80 a3 04 08       	mov    0x804a380,%eax
 8048e16:	50                   	push   %eax
 8048e17:	e8 bc fa ff ff       	call   80488d8 <fprintf@plt>
 8048e1c:	83 c4 10             	add    $0x10,%esp
 8048e1f:	b8 01 00 00 00       	mov    $0x1,%eax
 8048e24:	e9 07 01 00 00       	jmp    8048f30 <copy_file+0x190>
 8048e29:	8d b4 26 00 00 00 00 	lea    0x0(%esi,%eiz,1),%esi
 8048e30:	8d 85 00 f8 ff ff    	lea    -0x800(%ebp),%eax
 8048e36:	89 85 fc f7 ff ff    	mov    %eax,-0x804(%ebp)
 8048e3c:	8d 74 26 00          	lea    0x0(%esi,%eiz,1),%esi
 8048e40:	83 c4 f4             	add    $0xfffffff4,%esp
 8048e43:	8b 85 f4 f7 ff ff    	mov    -0x80c(%ebp),%eax
 8048e49:	50                   	push   %eax
 8048e4a:	e8 69 fa ff ff       	call   80488b8 <fgetc@plt>
 8048e4f:	83 c4 10             	add    $0x10,%esp
 8048e52:	89 c0                	mov    %eax,%eax
 8048e54:	89 85 ec f7 ff ff    	mov    %eax,-0x814(%ebp)
 8048e5a:	83 bd ec f7 ff ff ff 	cmpl   $0xffffffff,-0x814(%ebp)
 8048e61:	75 02                	jne    8048e65 <copy_file+0xc5>
 8048e63:	eb 1b                	jmp    8048e80 <copy_file+0xe0>
 8048e65:	8b 85 fc f7 ff ff    	mov    -0x804(%ebp),%eax
 8048e6b:	8a 95 ec f7 ff ff    	mov    -0x814(%ebp),%dl
 8048e71:	88 10                	mov    %dl,(%eax)
 8048e73:	ff 85 fc f7 ff ff    	incl   -0x804(%ebp)
 8048e79:	eb c5                	jmp    8048e40 <copy_file+0xa0>
 8048e7b:	90                   	nop
 8048e7c:	8d 74 26 00          	lea    0x0(%esi,%eiz,1),%esi
 8048e80:	83 c4 f4             	add    $0xfffffff4,%esp
 8048e83:	8b 85 f4 f7 ff ff    	mov    -0x80c(%ebp),%eax
 8048e89:	50                   	push   %eax
 8048e8a:	e8 99 fb ff ff       	call   8048a28 <fclose@plt>
 8048e8f:	83 c4 10             	add    $0x10,%esp
 8048e92:	83 c4 f8             	add    $0xfffffff8,%esp
 8048e95:	68 80 9c 04 08       	push   $0x8049c80
 8048e9a:	8b 45 0c             	mov    0xc(%ebp),%eax
 8048e9d:	50                   	push   %eax
 8048e9e:	e8 05 fc ff ff       	call   8048aa8 <fopen@plt>
 8048ea3:	83 c4 10             	add    $0x10,%esp
 8048ea6:	89 c0                	mov    %eax,%eax
 8048ea8:	89 85 f0 f7 ff ff    	mov    %eax,-0x810(%ebp)
 8048eae:	83 bd f0 f7 ff ff 00 	cmpl   $0x0,-0x810(%ebp)
 8048eb5:	75 21                	jne    8048ed8 <copy_file+0x138>
 8048eb7:	83 c4 fc             	add    $0xfffffffc,%esp
 8048eba:	8b 45 0c             	mov    0xc(%ebp),%eax
 8048ebd:	50                   	push   %eax
 8048ebe:	68 a0 9c 04 08       	push   $0x8049ca0
 8048ec3:	a1 80 a3 04 08       	mov    0x804a380,%eax
 8048ec8:	50                   	push   %eax
 8048ec9:	e8 0a fa ff ff       	call   80488d8 <fprintf@plt>
 8048ece:	83 c4 10             	add    $0x10,%esp
 8048ed1:	b8 01 00 00 00       	mov    $0x1,%eax
 8048ed6:	eb 58                	jmp    8048f30 <copy_file+0x190>
 8048ed8:	8d 85 00 f8 ff ff    	lea    -0x800(%ebp),%eax
 8048ede:	89 85 f8 f7 ff ff    	mov    %eax,-0x808(%ebp)
 8048ee4:	8b 85 f8 f7 ff ff    	mov    -0x808(%ebp),%eax
 8048eea:	3b 85 fc f7 ff ff    	cmp    -0x804(%ebp),%eax
 8048ef0:	75 02                	jne    8048ef4 <copy_file+0x154>
 8048ef2:	eb 24                	jmp    8048f18 <copy_file+0x178>
 8048ef4:	83 c4 f8             	add    $0xfffffff8,%esp
 8048ef7:	8b 85 f0 f7 ff ff    	mov    -0x810(%ebp),%eax
 8048efd:	50                   	push   %eax
 8048efe:	8b 85 f8 f7 ff ff    	mov    -0x808(%ebp),%eax
 8048f04:	0f be 10             	movsbl (%eax),%edx
 8048f07:	52                   	push   %edx
 8048f08:	e8 cb fa ff ff       	call   80489d8 <fputc@plt>
 8048f0d:	83 c4 10             	add    $0x10,%esp
 8048f10:	ff 85 f8 f7 ff ff    	incl   -0x808(%ebp)
 8048f16:	eb cc                	jmp    8048ee4 <copy_file+0x144>
 8048f18:	83 c4 f4             	add    $0xfffffff4,%esp
 8048f1b:	8b 85 f0 f7 ff ff    	mov    -0x810(%ebp),%eax
 8048f21:	50                   	push   %eax
 8048f22:	e8 01 fb ff ff       	call   8048a28 <fclose@plt>
 8048f27:	83 c4 10             	add    $0x10,%esp
 8048f2a:	31 c0                	xor    %eax,%eax
 8048f2c:	eb 02                	jmp    8048f30 <copy_file+0x190>
 8048f2e:	89 f6                	mov    %esi,%esi
 8048f30:	89 ec                	mov    %ebp,%esp
 8048f32:	5d                   	pop    %ebp
 8048f33:	c3                   	ret    
 8048f34:	8d b6 00 00 00 00    	lea    0x0(%esi),%esi
 8048f3a:	8d bf 00 00 00 00    	lea    0x0(%edi),%edi

08048f40 <dir_exists>:
 8048f40:	55                   	push   %ebp
 8048f41:	89 e5                	mov    %esp,%ebp
 8048f43:	83 ec 68             	sub    $0x68,%esp
 8048f46:	83 c4 f8             	add    $0xfffffff8,%esp
 8048f49:	8d 45 a8             	lea    -0x58(%ebp),%eax
 8048f4c:	50                   	push   %eax
 8048f4d:	8b 45 08             	mov    0x8(%ebp),%eax
 8048f50:	50                   	push   %eax
 8048f51:	e8 0a 0c 00 00       	call   8049b60 <__stat>
 8048f56:	83 c4 10             	add    $0x10,%esp
 8048f59:	89 c0                	mov    %eax,%eax
 8048f5b:	89 45 a4             	mov    %eax,-0x5c(%ebp)
 8048f5e:	83 7d a4 ff          	cmpl   $0xffffffff,-0x5c(%ebp)
 8048f62:	75 14                	jne    8048f78 <dir_exists+0x38>
 8048f64:	e8 bf f9 ff ff       	call   8048928 <__errno_location@plt>
 8048f69:	89 c0                	mov    %eax,%eax
 8048f6b:	89 c2                	mov    %eax,%edx
 8048f6d:	83 3a 02             	cmpl   $0x2,(%edx)
 8048f70:	75 06                	jne    8048f78 <dir_exists+0x38>
 8048f72:	31 c0                	xor    %eax,%eax
 8048f74:	eb 31                	jmp    8048fa7 <dir_exists+0x67>
 8048f76:	eb 2b                	jmp    8048fa3 <dir_exists+0x63>
 8048f78:	8b 45 b8             	mov    -0x48(%ebp),%eax
 8048f7b:	25 00 f0 00 00       	and    $0xf000,%eax
 8048f80:	3d 00 40 00 00       	cmp    $0x4000,%eax
 8048f85:	75 09                	jne    8048f90 <dir_exists+0x50>
 8048f87:	b8 01 00 00 00       	mov    $0x1,%eax
 8048f8c:	eb 19                	jmp    8048fa7 <dir_exists+0x67>
 8048f8e:	eb 13                	jmp    8048fa3 <dir_exists+0x63>
 8048f90:	83 c4 f4             	add    $0xfffffff4,%esp
 8048f93:	8b 45 08             	mov    0x8(%ebp),%eax
 8048f96:	50                   	push   %eax
 8048f97:	e8 5c f9 ff ff       	call   80488f8 <unlink@plt>
 8048f9c:	83 c4 10             	add    $0x10,%esp
 8048f9f:	31 c0                	xor    %eax,%eax
 8048fa1:	eb 04                	jmp    8048fa7 <dir_exists+0x67>
 8048fa3:	31 c0                	xor    %eax,%eax
 8048fa5:	eb 00                	jmp    8048fa7 <dir_exists+0x67>
 8048fa7:	89 ec                	mov    %ebp,%esp
 8048fa9:	5d                   	pop    %ebp
 8048faa:	c3                   	ret    
 8048fab:	90                   	nop
 8048fac:	8d 74 26 00          	lea    0x0(%esi,%eiz,1),%esi

08048fb0 <get_submit_dir>:
 8048fb0:	55                   	push   %ebp
 8048fb1:	89 e5                	mov    %esp,%ebp
 8048fb3:	83 ec 14             	sub    $0x14,%esp
 8048fb6:	53                   	push   %ebx
 8048fb7:	e8 5c fa ff ff       	call   8048a18 <getuid@plt>
 8048fbc:	89 c0                	mov    %eax,%eax
 8048fbe:	89 45 f8             	mov    %eax,-0x8(%ebp)
 8048fc1:	83 c4 f4             	add    $0xfffffff4,%esp
 8048fc4:	8b 45 f8             	mov    -0x8(%ebp),%eax
 8048fc7:	50                   	push   %eax
 8048fc8:	e8 3b f9 ff ff       	call   8048908 <getpwuid@plt>
 8048fcd:	83 c4 10             	add    $0x10,%esp
 8048fd0:	89 c0                	mov    %eax,%eax
 8048fd2:	89 45 f4             	mov    %eax,-0xc(%ebp)
 8048fd5:	83 7d f4 00          	cmpl   $0x0,-0xc(%ebp)
 8048fd9:	75 1d                	jne    8048ff8 <get_submit_dir+0x48>
 8048fdb:	83 c4 f8             	add    $0xfffffff8,%esp
 8048fde:	68 c5 9c 04 08       	push   $0x8049cc5
 8048fe3:	a1 80 a3 04 08       	mov    0x804a380,%eax
 8048fe8:	50                   	push   %eax
 8048fe9:	e8 ea f8 ff ff       	call   80488d8 <fprintf@plt>
 8048fee:	83 c4 10             	add    $0x10,%esp
 8048ff1:	31 c0                	xor    %eax,%eax
 8048ff3:	e9 ce 00 00 00       	jmp    80490c6 <get_submit_dir+0x116>
 8048ff8:	83 c4 f4             	add    $0xfffffff4,%esp
 8048ffb:	83 c4 f4             	add    $0xfffffff4,%esp
 8048ffe:	68 df 9c 04 08       	push   $0x8049cdf
 8049003:	e8 a0 f9 ff ff       	call   80489a8 <strlen@plt>
 8049008:	83 c4 10             	add    $0x10,%esp
 804900b:	89 c3                	mov    %eax,%ebx
 804900d:	83 c4 f4             	add    $0xfffffff4,%esp
 8049010:	8b 45 f4             	mov    -0xc(%ebp),%eax
 8049013:	8b 10                	mov    (%eax),%edx
 8049015:	52                   	push   %edx
 8049016:	e8 8d f9 ff ff       	call   80489a8 <strlen@plt>
 804901b:	83 c4 10             	add    $0x10,%esp
 804901e:	89 c0                	mov    %eax,%eax
 8049020:	8d 50 01             	lea    0x1(%eax),%edx
 8049023:	8d 04 1a             	lea    (%edx,%ebx,1),%eax
 8049026:	8d 50 01             	lea    0x1(%eax),%edx
 8049029:	52                   	push   %edx
 804902a:	e8 09 f9 ff ff       	call   8048938 <malloc@plt>
 804902f:	83 c4 10             	add    $0x10,%esp
 8049032:	89 c0                	mov    %eax,%eax
 8049034:	89 45 fc             	mov    %eax,-0x4(%ebp)
 8049037:	83 7d fc 00          	cmpl   $0x0,-0x4(%ebp)
 804903b:	75 1a                	jne    8049057 <get_submit_dir+0xa7>
 804903d:	83 c4 f8             	add    $0xfffffff8,%esp
 8049040:	68 f1 9c 04 08       	push   $0x8049cf1
 8049045:	a1 80 a3 04 08       	mov    0x804a380,%eax
 804904a:	50                   	push   %eax
 804904b:	e8 88 f8 ff ff       	call   80488d8 <fprintf@plt>
 8049050:	83 c4 10             	add    $0x10,%esp
 8049053:	31 c0                	xor    %eax,%eax
 8049055:	eb 6f                	jmp    80490c6 <get_submit_dir+0x116>
 8049057:	83 c4 f8             	add    $0xfffffff8,%esp
 804905a:	68 df 9c 04 08       	push   $0x8049cdf
 804905f:	8b 45 fc             	mov    -0x4(%ebp),%eax
 8049062:	50                   	push   %eax
 8049063:	e8 90 fa ff ff       	call   8048af8 <strcpy@plt>
 8049068:	83 c4 10             	add    $0x10,%esp
 804906b:	83 c4 f8             	add    $0xfffffff8,%esp
 804906e:	68 0c 9d 04 08       	push   $0x8049d0c
 8049073:	8b 45 fc             	mov    -0x4(%ebp),%eax
 8049076:	50                   	push   %eax
 8049077:	e8 7c f9 ff ff       	call   80489f8 <strcat@plt>
 804907c:	83 c4 10             	add    $0x10,%esp
 804907f:	83 c4 f8             	add    $0xfffffff8,%esp
 8049082:	8b 45 f4             	mov    -0xc(%ebp),%eax
 8049085:	8b 10                	mov    (%eax),%edx
 8049087:	52                   	push   %edx
 8049088:	8b 45 fc             	mov    -0x4(%ebp),%eax
 804908b:	50                   	push   %eax
 804908c:	e8 67 f9 ff ff       	call   80489f8 <strcat@plt>
 8049091:	83 c4 10             	add    $0x10,%esp
 8049094:	83 c4 f4             	add    $0xfffffff4,%esp
 8049097:	8b 45 fc             	mov    -0x4(%ebp),%eax
 804909a:	50                   	push   %eax
 804909b:	e8 a0 fe ff ff       	call   8048f40 <dir_exists>
 80490a0:	83 c4 10             	add    $0x10,%esp
 80490a3:	89 c0                	mov    %eax,%eax
 80490a5:	85 c0                	test   %eax,%eax
 80490a7:	75 16                	jne    80490bf <get_submit_dir+0x10f>
 80490a9:	83 c4 fc             	add    $0xfffffffc,%esp
 80490ac:	6a 00                	push   $0x0
 80490ae:	8b 45 fc             	mov    -0x4(%ebp),%eax
 80490b1:	50                   	push   %eax
 80490b2:	68 0e 9d 04 08       	push   $0x8049d0e
 80490b7:	e8 c4 fb ff ff       	call   8048c80 <run_cmd>
 80490bc:	83 c4 10             	add    $0x10,%esp
 80490bf:	8b 55 fc             	mov    -0x4(%ebp),%edx
 80490c2:	89 d0                	mov    %edx,%eax
 80490c4:	eb 00                	jmp    80490c6 <get_submit_dir+0x116>
 80490c6:	8b 5d e8             	mov    -0x18(%ebp),%ebx
 80490c9:	89 ec                	mov    %ebp,%esp
 80490cb:	5d                   	pop    %ebp
 80490cc:	c3                   	ret    
 80490cd:	8d 76 00             	lea    0x0(%esi),%esi

080490d0 <get_dst_name>:
 80490d0:	55                   	push   %ebp
 80490d1:	89 e5                	mov    %esp,%ebp
 80490d3:	83 ec 14             	sub    $0x14,%esp
 80490d6:	53                   	push   %ebx
 80490d7:	e8 d4 fe ff ff       	call   8048fb0 <get_submit_dir>
 80490dc:	89 c0                	mov    %eax,%eax
 80490de:	89 45 f8             	mov    %eax,-0x8(%ebp)
 80490e1:	83 c4 f4             	add    $0xfffffff4,%esp
 80490e4:	83 c4 f4             	add    $0xfffffff4,%esp
 80490e7:	8b 45 f8             	mov    -0x8(%ebp),%eax
 80490ea:	50                   	push   %eax
 80490eb:	e8 b8 f8 ff ff       	call   80489a8 <strlen@plt>
 80490f0:	83 c4 10             	add    $0x10,%esp
 80490f3:	89 c3                	mov    %eax,%ebx
 80490f5:	83 c4 f4             	add    $0xfffffff4,%esp
 80490f8:	8b 45 08             	mov    0x8(%ebp),%eax
 80490fb:	50                   	push   %eax
 80490fc:	e8 a7 f8 ff ff       	call   80489a8 <strlen@plt>
 8049101:	83 c4 10             	add    $0x10,%esp
 8049104:	89 c0                	mov    %eax,%eax
 8049106:	8d 50 01             	lea    0x1(%eax),%edx
 8049109:	8d 04 1a             	lea    (%edx,%ebx,1),%eax
 804910c:	8d 50 01             	lea    0x1(%eax),%edx
 804910f:	52                   	push   %edx
 8049110:	e8 23 f8 ff ff       	call   8048938 <malloc@plt>
 8049115:	83 c4 10             	add    $0x10,%esp
 8049118:	89 c0                	mov    %eax,%eax
 804911a:	89 45 fc             	mov    %eax,-0x4(%ebp)
 804911d:	83 7d fc 00          	cmpl   $0x0,-0x4(%ebp)
 8049121:	75 1d                	jne    8049140 <get_dst_name+0x70>
 8049123:	83 c4 f8             	add    $0xfffffff8,%esp
 8049126:	68 f1 9c 04 08       	push   $0x8049cf1
 804912b:	a1 80 a3 04 08       	mov    0x804a380,%eax
 8049130:	50                   	push   %eax
 8049131:	e8 a2 f7 ff ff       	call   80488d8 <fprintf@plt>
 8049136:	83 c4 10             	add    $0x10,%esp
 8049139:	31 c0                	xor    %eax,%eax
 804913b:	eb 53                	jmp    8049190 <get_dst_name+0xc0>
 804913d:	8d 76 00             	lea    0x0(%esi),%esi
 8049140:	83 c4 f8             	add    $0xfffffff8,%esp
 8049143:	8b 45 f8             	mov    -0x8(%ebp),%eax
 8049146:	50                   	push   %eax
 8049147:	8b 45 fc             	mov    -0x4(%ebp),%eax
 804914a:	50                   	push   %eax
 804914b:	e8 a8 f9 ff ff       	call   8048af8 <strcpy@plt>
 8049150:	83 c4 10             	add    $0x10,%esp
 8049153:	83 c4 f8             	add    $0xfffffff8,%esp
 8049156:	68 0c 9d 04 08       	push   $0x8049d0c
 804915b:	8b 45 fc             	mov    -0x4(%ebp),%eax
 804915e:	50                   	push   %eax
 804915f:	e8 94 f8 ff ff       	call   80489f8 <strcat@plt>
 8049164:	83 c4 10             	add    $0x10,%esp
 8049167:	83 c4 f8             	add    $0xfffffff8,%esp
 804916a:	8b 45 08             	mov    0x8(%ebp),%eax
 804916d:	50                   	push   %eax
 804916e:	8b 45 fc             	mov    -0x4(%ebp),%eax
 8049171:	50                   	push   %eax
 8049172:	e8 81 f8 ff ff       	call   80489f8 <strcat@plt>
 8049177:	83 c4 10             	add    $0x10,%esp
 804917a:	83 c4 f4             	add    $0xfffffff4,%esp
 804917d:	8b 45 f8             	mov    -0x8(%ebp),%eax
 8049180:	50                   	push   %eax
 8049181:	e8 f2 f8 ff ff       	call   8048a78 <free@plt>
 8049186:	83 c4 10             	add    $0x10,%esp
 8049189:	8b 55 fc             	mov    -0x4(%ebp),%edx
 804918c:	89 d0                	mov    %edx,%eax
 804918e:	eb 00                	jmp    8049190 <get_dst_name+0xc0>
 8049190:	8b 5d e8             	mov    -0x18(%ebp),%ebx
 8049193:	89 ec                	mov    %ebp,%esp
 8049195:	5d                   	pop    %ebp
 8049196:	c3                   	ret    
 8049197:	89 f6                	mov    %esi,%esi
 8049199:	8d bc 27 00 00 00 00 	lea    0x0(%edi,%eiz,1),%edi

080491a0 <get_logfile_name>:
 80491a0:	55                   	push   %ebp
 80491a1:	89 e5                	mov    %esp,%ebp
 80491a3:	81 ec 84 00 00 00    	sub    $0x84,%esp
 80491a9:	53                   	push   %ebx
 80491aa:	e8 69 f8 ff ff       	call   8048a18 <getuid@plt>
 80491af:	89 c0                	mov    %eax,%eax
 80491b1:	89 45 fc             	mov    %eax,-0x4(%ebp)
 80491b4:	e8 8f f8 ff ff       	call   8048a48 <getgid@plt>
 80491b9:	89 c0                	mov    %eax,%eax
 80491bb:	89 45 f8             	mov    %eax,-0x8(%ebp)
 80491be:	83 c4 f4             	add    $0xfffffff4,%esp
 80491c1:	8b 45 fc             	mov    -0x4(%ebp),%eax
 80491c4:	50                   	push   %eax
 80491c5:	e8 3e f7 ff ff       	call   8048908 <getpwuid@plt>
 80491ca:	83 c4 10             	add    $0x10,%esp
 80491cd:	89 c0                	mov    %eax,%eax
 80491cf:	89 45 f4             	mov    %eax,-0xc(%ebp)
 80491d2:	83 7d f4 00          	cmpl   $0x0,-0xc(%ebp)
 80491d6:	75 1d                	jne    80491f5 <get_logfile_name+0x55>
 80491d8:	83 c4 f8             	add    $0xfffffff8,%esp
 80491db:	68 c5 9c 04 08       	push   $0x8049cc5
 80491e0:	a1 80 a3 04 08       	mov    0x804a380,%eax
 80491e5:	50                   	push   %eax
 80491e6:	e8 ed f6 ff ff       	call   80488d8 <fprintf@plt>
 80491eb:	83 c4 10             	add    $0x10,%esp
 80491ee:	31 c0                	xor    %eax,%eax
 80491f0:	e9 62 02 00 00       	jmp    8049457 <get_logfile_name+0x2b7>
 80491f5:	83 c4 f4             	add    $0xfffffff4,%esp
 80491f8:	83 c4 f4             	add    $0xfffffff4,%esp
 80491fb:	8b 45 f4             	mov    -0xc(%ebp),%eax
 80491fe:	8b 10                	mov    (%eax),%edx
 8049200:	52                   	push   %edx
 8049201:	e8 a2 f7 ff ff       	call   80489a8 <strlen@plt>
 8049206:	83 c4 10             	add    $0x10,%esp
 8049209:	89 c3                	mov    %eax,%ebx
 804920b:	83 c4 f4             	add    $0xfffffff4,%esp
 804920e:	68 14 9d 04 08       	push   $0x8049d14
 8049213:	e8 90 f7 ff ff       	call   80489a8 <strlen@plt>
 8049218:	83 c4 10             	add    $0x10,%esp
 804921b:	89 c0                	mov    %eax,%eax
 804921d:	8d 50 07             	lea    0x7(%eax),%edx
 8049220:	8d 04 1a             	lea    (%edx,%ebx,1),%eax
 8049223:	8d 50 01             	lea    0x1(%eax),%edx
 8049226:	52                   	push   %edx
 8049227:	e8 0c f7 ff ff       	call   8048938 <malloc@plt>
 804922c:	83 c4 10             	add    $0x10,%esp
 804922f:	89 c0                	mov    %eax,%eax
 8049231:	89 45 f0             	mov    %eax,-0x10(%ebp)
 8049234:	83 7d f0 00          	cmpl   $0x0,-0x10(%ebp)
 8049238:	75 1d                	jne    8049257 <get_logfile_name+0xb7>
 804923a:	83 c4 f8             	add    $0xfffffff8,%esp
 804923d:	68 f1 9c 04 08       	push   $0x8049cf1
 8049242:	a1 80 a3 04 08       	mov    0x804a380,%eax
 8049247:	50                   	push   %eax
 8049248:	e8 8b f6 ff ff       	call   80488d8 <fprintf@plt>
 804924d:	83 c4 10             	add    $0x10,%esp
 8049250:	31 c0                	xor    %eax,%eax
 8049252:	e9 00 02 00 00       	jmp    8049457 <get_logfile_name+0x2b7>
 8049257:	83 c4 f4             	add    $0xfffffff4,%esp
 804925a:	83 c4 f4             	add    $0xfffffff4,%esp
 804925d:	8b 45 f4             	mov    -0xc(%ebp),%eax
 8049260:	8b 10                	mov    (%eax),%edx
 8049262:	52                   	push   %edx
 8049263:	e8 40 f7 ff ff       	call   80489a8 <strlen@plt>
 8049268:	83 c4 10             	add    $0x10,%esp
 804926b:	89 c0                	mov    %eax,%eax
 804926d:	8d 50 07             	lea    0x7(%eax),%edx
 8049270:	52                   	push   %edx
 8049271:	e8 c2 f6 ff ff       	call   8048938 <malloc@plt>
 8049276:	83 c4 10             	add    $0x10,%esp
 8049279:	89 c0                	mov    %eax,%eax
 804927b:	89 45 ec             	mov    %eax,-0x14(%ebp)
 804927e:	83 7d ec 00          	cmpl   $0x0,-0x14(%ebp)
 8049282:	75 1d                	jne    80492a1 <get_logfile_name+0x101>
 8049284:	83 c4 f8             	add    $0xfffffff8,%esp
 8049287:	68 f1 9c 04 08       	push   $0x8049cf1
 804928c:	a1 80 a3 04 08       	mov    0x804a380,%eax
 8049291:	50                   	push   %eax
 8049292:	e8 41 f6 ff ff       	call   80488d8 <fprintf@plt>
 8049297:	83 c4 10             	add    $0x10,%esp
 804929a:	31 c0                	xor    %eax,%eax
 804929c:	e9 b6 01 00 00       	jmp    8049457 <get_logfile_name+0x2b7>
 80492a1:	83 c4 f8             	add    $0xfffffff8,%esp
 80492a4:	68 1f 9d 04 08       	push   $0x8049d1f
 80492a9:	8b 45 f0             	mov    -0x10(%ebp),%eax
 80492ac:	50                   	push   %eax
 80492ad:	e8 46 f8 ff ff       	call   8048af8 <strcpy@plt>
 80492b2:	83 c4 10             	add    $0x10,%esp
 80492b5:	83 c4 f8             	add    $0xfffffff8,%esp
 80492b8:	8b 45 f4             	mov    -0xc(%ebp),%eax
 80492bb:	8b 10                	mov    (%eax),%edx
 80492bd:	52                   	push   %edx
 80492be:	8b 45 f0             	mov    -0x10(%ebp),%eax
 80492c1:	50                   	push   %eax
 80492c2:	e8 31 f7 ff ff       	call   80489f8 <strcat@plt>
 80492c7:	83 c4 10             	add    $0x10,%esp
 80492ca:	83 c4 f8             	add    $0xfffffff8,%esp
 80492cd:	8b 45 f0             	mov    -0x10(%ebp),%eax
 80492d0:	50                   	push   %eax
 80492d1:	8b 45 ec             	mov    -0x14(%ebp),%eax
 80492d4:	50                   	push   %eax
 80492d5:	e8 1e f8 ff ff       	call   8048af8 <strcpy@plt>
 80492da:	83 c4 10             	add    $0x10,%esp
 80492dd:	83 c4 f8             	add    $0xfffffff8,%esp
 80492e0:	68 0c 9d 04 08       	push   $0x8049d0c
 80492e5:	8b 45 f0             	mov    -0x10(%ebp),%eax
 80492e8:	50                   	push   %eax
 80492e9:	e8 0a f7 ff ff       	call   80489f8 <strcat@plt>
 80492ee:	83 c4 10             	add    $0x10,%esp
 80492f1:	83 c4 f8             	add    $0xfffffff8,%esp
 80492f4:	68 14 9d 04 08       	push   $0x8049d14
 80492f9:	8b 45 f0             	mov    -0x10(%ebp),%eax
 80492fc:	50                   	push   %eax
 80492fd:	e8 f6 f6 ff ff       	call   80489f8 <strcat@plt>
 8049302:	83 c4 10             	add    $0x10,%esp
 8049305:	83 c4 f8             	add    $0xfffffff8,%esp
 8049308:	6a 00                	push   $0x0
 804930a:	8b 45 f0             	mov    -0x10(%ebp),%eax
 804930d:	50                   	push   %eax
 804930e:	e8 c5 f7 ff ff       	call   8048ad8 <realpath@plt>
 8049313:	83 c4 10             	add    $0x10,%esp
 8049316:	89 c0                	mov    %eax,%eax
 8049318:	89 45 e8             	mov    %eax,-0x18(%ebp)
 804931b:	83 7d e8 00          	cmpl   $0x0,-0x18(%ebp)
 804931f:	0f 85 83 00 00 00    	jne    80493a8 <get_logfile_name+0x208>
 8049325:	83 c4 f8             	add    $0xfffffff8,%esp
 8049328:	68 80 01 00 00       	push   $0x180
 804932d:	8b 45 f0             	mov    -0x10(%ebp),%eax
 8049330:	50                   	push   %eax
 8049331:	e8 e2 f5 ff ff       	call   8048918 <creat@plt>
 8049336:	83 c4 10             	add    $0x10,%esp
 8049339:	89 c0                	mov    %eax,%eax
 804933b:	89 45 8c             	mov    %eax,-0x74(%ebp)
 804933e:	83 7d 8c 00          	cmpl   $0x0,-0x74(%ebp)
 8049342:	7d 21                	jge    8049365 <get_logfile_name+0x1c5>
 8049344:	83 c4 fc             	add    $0xfffffffc,%esp
 8049347:	8b 45 f0             	mov    -0x10(%ebp),%eax
 804934a:	50                   	push   %eax
 804934b:	68 40 9d 04 08       	push   $0x8049d40
 8049350:	a1 80 a3 04 08       	mov    0x804a380,%eax
 8049355:	50                   	push   %eax
 8049356:	e8 7d f5 ff ff       	call   80488d8 <fprintf@plt>
 804935b:	83 c4 10             	add    $0x10,%esp
 804935e:	31 c0                	xor    %eax,%eax
 8049360:	e9 f2 00 00 00       	jmp    8049457 <get_logfile_name+0x2b7>
 8049365:	83 c4 fc             	add    $0xfffffffc,%esp
 8049368:	8b 45 f8             	mov    -0x8(%ebp),%eax
 804936b:	50                   	push   %eax
 804936c:	8b 45 fc             	mov    -0x4(%ebp),%eax
 804936f:	50                   	push   %eax
 8049370:	8b 45 8c             	mov    -0x74(%ebp),%eax
 8049373:	50                   	push   %eax
 8049374:	e8 4f f7 ff ff       	call   8048ac8 <fchown@plt>
 8049379:	83 c4 10             	add    $0x10,%esp
 804937c:	89 c0                	mov    %eax,%eax
 804937e:	85 c0                	test   %eax,%eax
 8049380:	7d 21                	jge    80493a3 <get_logfile_name+0x203>
 8049382:	83 c4 fc             	add    $0xfffffffc,%esp
 8049385:	8b 45 f0             	mov    -0x10(%ebp),%eax
 8049388:	50                   	push   %eax
 8049389:	68 60 9d 04 08       	push   $0x8049d60
 804938e:	a1 80 a3 04 08       	mov    0x804a380,%eax
 8049393:	50                   	push   %eax
 8049394:	e8 3f f5 ff ff       	call   80488d8 <fprintf@plt>
 8049399:	83 c4 10             	add    $0x10,%esp
 804939c:	31 c0                	xor    %eax,%eax
 804939e:	e9 b4 00 00 00       	jmp    8049457 <get_logfile_name+0x2b7>
 80493a3:	e9 a8 00 00 00       	jmp    8049450 <get_logfile_name+0x2b0>
 80493a8:	83 c4 fc             	add    $0xfffffffc,%esp
 80493ab:	83 c4 f4             	add    $0xfffffff4,%esp
 80493ae:	8b 45 ec             	mov    -0x14(%ebp),%eax
 80493b1:	50                   	push   %eax
 80493b2:	e8 f1 f5 ff ff       	call   80489a8 <strlen@plt>
 80493b7:	83 c4 10             	add    $0x10,%esp
 80493ba:	89 c0                	mov    %eax,%eax
 80493bc:	50                   	push   %eax
 80493bd:	8b 45 ec             	mov    -0x14(%ebp),%eax
 80493c0:	50                   	push   %eax
 80493c1:	8b 45 e8             	mov    -0x18(%ebp),%eax
 80493c4:	50                   	push   %eax
 80493c5:	e8 fe f5 ff ff       	call   80489c8 <strncmp@plt>
 80493ca:	83 c4 10             	add    $0x10,%esp
 80493cd:	89 c0                	mov    %eax,%eax
 80493cf:	85 c0                	test   %eax,%eax
 80493d1:	74 1e                	je     80493f1 <get_logfile_name+0x251>
 80493d3:	83 c4 fc             	add    $0xfffffffc,%esp
 80493d6:	8b 45 e8             	mov    -0x18(%ebp),%eax
 80493d9:	50                   	push   %eax
 80493da:	68 8c 9d 04 08       	push   $0x8049d8c
 80493df:	a1 80 a3 04 08       	mov    0x804a380,%eax
 80493e4:	50                   	push   %eax
 80493e5:	e8 ee f4 ff ff       	call   80488d8 <fprintf@plt>
 80493ea:	83 c4 10             	add    $0x10,%esp
 80493ed:	31 c0                	xor    %eax,%eax
 80493ef:	eb 66                	jmp    8049457 <get_logfile_name+0x2b7>
 80493f1:	83 c4 f8             	add    $0xfffffff8,%esp
 80493f4:	8d 45 90             	lea    -0x70(%ebp),%eax
 80493f7:	50                   	push   %eax
 80493f8:	8b 45 f0             	mov    -0x10(%ebp),%eax
 80493fb:	50                   	push   %eax
 80493fc:	e8 5f 07 00 00       	call   8049b60 <__stat>
 8049401:	83 c4 10             	add    $0x10,%esp
 8049404:	89 c0                	mov    %eax,%eax
 8049406:	85 c0                	test   %eax,%eax
 8049408:	74 1a                	je     8049424 <get_logfile_name+0x284>
 804940a:	83 c4 f8             	add    $0xfffffff8,%esp
 804940d:	68 a2 9d 04 08       	push   $0x8049da2
 8049412:	a1 80 a3 04 08       	mov    0x804a380,%eax
 8049417:	50                   	push   %eax
 8049418:	e8 bb f4 ff ff       	call   80488d8 <fprintf@plt>
 804941d:	83 c4 10             	add    $0x10,%esp
 8049420:	31 c0                	xor    %eax,%eax
 8049422:	eb 33                	jmp    8049457 <get_logfile_name+0x2b7>
 8049424:	8b 45 a8             	mov    -0x58(%ebp),%eax
 8049427:	3b 45 fc             	cmp    -0x4(%ebp),%eax
 804942a:	74 24                	je     8049450 <get_logfile_name+0x2b0>
 804942c:	83 c4 fc             	add    $0xfffffffc,%esp
 804942f:	8b 45 f0             	mov    -0x10(%ebp),%eax
 8049432:	50                   	push   %eax
 8049433:	68 b2 9d 04 08       	push   $0x8049db2
 8049438:	a1 80 a3 04 08       	mov    0x804a380,%eax
 804943d:	50                   	push   %eax
 804943e:	e8 95 f4 ff ff       	call   80488d8 <fprintf@plt>
 8049443:	83 c4 10             	add    $0x10,%esp
 8049446:	31 c0                	xor    %eax,%eax
 8049448:	eb 0d                	jmp    8049457 <get_logfile_name+0x2b7>
 804944a:	8d b6 00 00 00 00    	lea    0x0(%esi),%esi
 8049450:	8b 55 f0             	mov    -0x10(%ebp),%edx
 8049453:	89 d0                	mov    %edx,%eax
 8049455:	eb 00                	jmp    8049457 <get_logfile_name+0x2b7>
 8049457:	8b 9d 78 ff ff ff    	mov    -0x88(%ebp),%ebx
 804945d:	89 ec                	mov    %ebp,%esp
 804945f:	5d                   	pop    %ebp
 8049460:	c3                   	ret    
 8049461:	eb 0d                	jmp    8049470 <check_for_viruses>
 8049463:	90                   	nop
 8049464:	90                   	nop
 8049465:	90                   	nop
 8049466:	90                   	nop
 8049467:	90                   	nop
 8049468:	90                   	nop
 8049469:	90                   	nop
 804946a:	90                   	nop
 804946b:	90                   	nop
 804946c:	90                   	nop
 804946d:	90                   	nop
 804946e:	90                   	nop
 804946f:	90                   	nop

08049470 <check_for_viruses>:
 8049470:	55                   	push   %ebp
 8049471:	89 e5                	mov    %esp,%ebp
 8049473:	81 ec 48 04 00 00    	sub    $0x448,%esp
 8049479:	83 c4 f8             	add    $0xfffffff8,%esp
 804947c:	8b 45 08             	mov    0x8(%ebp),%eax
 804947f:	50                   	push   %eax
 8049480:	68 c9 9d 04 08       	push   $0x8049dc9
 8049485:	e8 7e f5 ff ff       	call   8048a08 <printf@plt>
 804948a:	83 c4 10             	add    $0x10,%esp
 804948d:	83 c4 f8             	add    $0xfffffff8,%esp
 8049490:	68 57 9c 04 08       	push   $0x8049c57
 8049495:	8b 45 08             	mov    0x8(%ebp),%eax
 8049498:	50                   	push   %eax
 8049499:	e8 0a f6 ff ff       	call   8048aa8 <fopen@plt>
 804949e:	83 c4 10             	add    $0x10,%esp
 80494a1:	89 c0                	mov    %eax,%eax
 80494a3:	89 85 f8 fb ff ff    	mov    %eax,-0x408(%ebp)
 80494a9:	83 bd f8 fb ff ff 00 	cmpl   $0x0,-0x408(%ebp)
 80494b0:	75 24                	jne    80494d6 <check_for_viruses+0x66>
 80494b2:	83 c4 fc             	add    $0xfffffffc,%esp
 80494b5:	8b 45 08             	mov    0x8(%ebp),%eax
 80494b8:	50                   	push   %eax
 80494b9:	68 60 9c 04 08       	push   $0x8049c60
 80494be:	a1 80 a3 04 08       	mov    0x804a380,%eax
 80494c3:	50                   	push   %eax
 80494c4:	e8 0f f4 ff ff       	call   80488d8 <fprintf@plt>
 80494c9:	83 c4 10             	add    $0x10,%esp
 80494cc:	b8 01 00 00 00       	mov    $0x1,%eax
 80494d1:	e9 1e 01 00 00       	jmp    80495f4 <check_for_viruses+0x184>
 80494d6:	83 bd f4 fb ff ff ff 	cmpl   $0xffffffff,-0x40c(%ebp)
 80494dd:	75 05                	jne    80494e4 <check_for_viruses+0x74>
 80494df:	e9 fc 00 00 00       	jmp    80495e0 <check_for_viruses+0x170>
 80494e4:	8d 85 00 fc ff ff    	lea    -0x400(%ebp),%eax
 80494ea:	89 85 fc fb ff ff    	mov    %eax,-0x404(%ebp)
 80494f0:	c7 85 f0 fb ff ff 00 	movl   $0x0,-0x410(%ebp)
 80494f7:	00 00 00 
 80494fa:	8d b6 00 00 00 00    	lea    0x0(%esi),%esi
 8049500:	83 c4 f4             	add    $0xfffffff4,%esp
 8049503:	8b 85 f8 fb ff ff    	mov    -0x408(%ebp),%eax
 8049509:	50                   	push   %eax
 804950a:	e8 a9 f3 ff ff       	call   80488b8 <fgetc@plt>
 804950f:	83 c4 10             	add    $0x10,%esp
 8049512:	89 c0                	mov    %eax,%eax
 8049514:	89 85 f4 fb ff ff    	mov    %eax,-0x40c(%ebp)
 804951a:	83 bd f4 fb ff ff ff 	cmpl   $0xffffffff,-0x40c(%ebp)
 8049521:	74 0e                	je     8049531 <check_for_viruses+0xc1>
 8049523:	81 bd f0 fb ff ff ff 	cmpl   $0x3ff,-0x410(%ebp)
 804952a:	03 00 00 
 804952d:	7e 04                	jle    8049533 <check_for_viruses+0xc3>
 804952f:	eb 00                	jmp    8049531 <check_for_viruses+0xc1>
 8049531:	eb 1d                	jmp    8049550 <check_for_viruses+0xe0>
 8049533:	8b 85 fc fb ff ff    	mov    -0x404(%ebp),%eax
 8049539:	8a 95 f4 fb ff ff    	mov    -0x40c(%ebp),%dl
 804953f:	88 10                	mov    %dl,(%eax)
 8049541:	ff 85 fc fb ff ff    	incl   -0x404(%ebp)
 8049547:	ff 85 f0 fb ff ff    	incl   -0x410(%ebp)
 804954d:	eb b1                	jmp    8049500 <check_for_viruses+0x90>
 804954f:	90                   	nop
 8049550:	83 c4 fc             	add    $0xfffffffc,%esp
 8049553:	6a 00                	push   $0x0
 8049555:	68 e5 9d 04 08       	push   $0x8049de5
 804955a:	8d 85 d0 fb ff ff    	lea    -0x430(%ebp),%eax
 8049560:	50                   	push   %eax
 8049561:	e8 02 f5 ff ff       	call   8048a68 <regcomp@plt>
 8049566:	83 c4 10             	add    $0x10,%esp
 8049569:	89 c0                	mov    %eax,%eax
 804956b:	85 c0                	test   %eax,%eax
 804956d:	74 21                	je     8049590 <check_for_viruses+0x120>
 804956f:	83 c4 f8             	add    $0xfffffff8,%esp
 8049572:	68 00 9e 04 08       	push   $0x8049e00
 8049577:	a1 80 a3 04 08       	mov    0x804a380,%eax
 804957c:	50                   	push   %eax
 804957d:	e8 56 f3 ff ff       	call   80488d8 <fprintf@plt>
 8049582:	83 c4 10             	add    $0x10,%esp
 8049585:	b8 01 00 00 00       	mov    $0x1,%eax
 804958a:	eb 68                	jmp    80495f4 <check_for_viruses+0x184>
 804958c:	8d 74 26 00          	lea    0x0(%esi,%eiz,1),%esi
 8049590:	83 c4 f4             	add    $0xfffffff4,%esp
 8049593:	6a 00                	push   $0x0
 8049595:	6a 00                	push   $0x0
 8049597:	6a 00                	push   $0x0
 8049599:	8d 85 00 fc ff ff    	lea    -0x400(%ebp),%eax
 804959f:	50                   	push   %eax
 80495a0:	8d 85 d0 fb ff ff    	lea    -0x430(%ebp),%eax
 80495a6:	50                   	push   %eax
 80495a7:	e8 fc f2 ff ff       	call   80488a8 <regexec@plt>
 80495ac:	83 c4 20             	add    $0x20,%esp
 80495af:	89 c0                	mov    %eax,%eax
 80495b1:	89 85 cc fb ff ff    	mov    %eax,-0x434(%ebp)
 80495b7:	83 bd cc fb ff ff 00 	cmpl   $0x0,-0x434(%ebp)
 80495be:	75 17                	jne    80495d7 <check_for_viruses+0x167>
 80495c0:	83 c4 f4             	add    $0xfffffff4,%esp
 80495c3:	68 40 9e 04 08       	push   $0x8049e40
 80495c8:	e8 3b f4 ff ff       	call   8048a08 <printf@plt>
 80495cd:	83 c4 10             	add    $0x10,%esp
 80495d0:	b8 01 00 00 00       	mov    $0x1,%eax
 80495d5:	eb 1d                	jmp    80495f4 <check_for_viruses+0x184>
 80495d7:	e9 fa fe ff ff       	jmp    80494d6 <check_for_viruses+0x66>
 80495dc:	8d 74 26 00          	lea    0x0(%esi,%eiz,1),%esi
 80495e0:	83 c4 f4             	add    $0xfffffff4,%esp
 80495e3:	68 7d 9e 04 08       	push   $0x8049e7d
 80495e8:	e8 1b f4 ff ff       	call   8048a08 <printf@plt>
 80495ed:	83 c4 10             	add    $0x10,%esp
 80495f0:	31 c0                	xor    %eax,%eax
 80495f2:	eb 00                	jmp    80495f4 <check_for_viruses+0x184>
 80495f4:	89 ec                	mov    %ebp,%esp
 80495f6:	5d                   	pop    %ebp
 80495f7:	c3                   	ret    
 80495f8:	90                   	nop
 80495f9:	8d b4 26 00 00 00 00 	lea    0x0(%esi,%eiz,1),%esi

08049600 <log_message>:
 8049600:	55                   	push   %ebp
 8049601:	89 e5                	mov    %esp,%ebp
 8049603:	83 ec 18             	sub    $0x18,%esp
 8049606:	83 7d 18 00          	cmpl   $0x0,0x18(%ebp)
 804960a:	75 07                	jne    8049613 <log_message+0x13>
 804960c:	c7 45 18 93 9e 04 08 	movl   $0x8049e93,0x18(%ebp)
 8049613:	83 c4 f8             	add    $0xfffffff8,%esp
 8049616:	68 80 9c 04 08       	push   $0x8049c80
 804961b:	8b 45 1c             	mov    0x1c(%ebp),%eax
 804961e:	50                   	push   %eax
 804961f:	e8 84 f4 ff ff       	call   8048aa8 <fopen@plt>
 8049624:	83 c4 10             	add    $0x10,%esp
 8049627:	89 c0                	mov    %eax,%eax
 8049629:	89 45 fc             	mov    %eax,-0x4(%ebp)
 804962c:	83 7d fc 00          	cmpl   $0x0,-0x4(%ebp)
 8049630:	75 0e                	jne    8049640 <log_message+0x40>
 8049632:	b8 01 00 00 00       	mov    $0x1,%eax
 8049637:	eb 2d                	jmp    8049666 <log_message+0x66>
 8049639:	8d b4 26 00 00 00 00 	lea    0x0(%esi,%eiz,1),%esi
 8049640:	83 c4 f8             	add    $0xfffffff8,%esp
 8049643:	8b 45 fc             	mov    -0x4(%ebp),%eax
 8049646:	50                   	push   %eax
 8049647:	8b 45 18             	mov    0x18(%ebp),%eax
 804964a:	50                   	push   %eax
 804964b:	e8 48 f3 ff ff       	call   8048998 <fputs@plt>
 8049650:	83 c4 10             	add    $0x10,%esp
 8049653:	83 c4 f4             	add    $0xfffffff4,%esp
 8049656:	8b 45 fc             	mov    -0x4(%ebp),%eax
 8049659:	50                   	push   %eax
 804965a:	e8 c9 f3 ff ff       	call   8048a28 <fclose@plt>
 804965f:	83 c4 10             	add    $0x10,%esp
 8049662:	31 c0                	xor    %eax,%eax
 8049664:	eb 00                	jmp    8049666 <log_message+0x66>
 8049666:	89 ec                	mov    %ebp,%esp
 8049668:	5d                   	pop    %ebp
 8049669:	c3                   	ret    
 804966a:	8d b6 00 00 00 00    	lea    0x0(%esi),%esi

08049670 <parse_args>:
 8049670:	55                   	push   %ebp
 8049671:	89 e5                	mov    %esp,%ebp
 8049673:	83 ec 6c             	sub    $0x6c,%esp
 8049676:	57                   	push   %edi
 8049677:	56                   	push   %esi
 8049678:	53                   	push   %ebx
 8049679:	8b 5d 08             	mov    0x8(%ebp),%ebx
 804967c:	8d 45 a4             	lea    -0x5c(%ebp),%eax
 804967f:	8d 7d a4             	lea    -0x5c(%ebp),%edi
 8049682:	be b0 9e 04 08       	mov    $0x8049eb0,%esi
 8049687:	fc                   	cld    
 8049688:	b9 10 00 00 00       	mov    $0x10,%ecx
 804968d:	f3 a5                	rep movsl %ds:(%esi),%es:(%edi)
 804968f:	83 c4 fc             	add    $0xfffffffc,%esp
 8049692:	6a 14                	push   $0x14
 8049694:	6a 00                	push   $0x0
 8049696:	8d 45 e4             	lea    -0x1c(%ebp),%eax
 8049699:	50                   	push   %eax
 804969a:	e8 e9 f3 ff ff       	call   8048a88 <memset@plt>
 804969f:	83 c4 10             	add    $0x10,%esp
 80496a2:	c7 45 fc 00 00 00 00 	movl   $0x0,-0x4(%ebp)
 80496a9:	c7 45 f8 00 00 00 00 	movl   $0x0,-0x8(%ebp)
 80496b0:	eb 02                	jmp    80496b4 <parse_args+0x44>
 80496b2:	eb 7c                	jmp    8049730 <parse_args+0xc0>
 80496b4:	83 c4 f4             	add    $0xfffffff4,%esp
 80496b7:	6a 00                	push   $0x0
 80496b9:	8d 45 a4             	lea    -0x5c(%ebp),%eax
 80496bc:	50                   	push   %eax
 80496bd:	68 f0 9e 04 08       	push   $0x8049ef0
 80496c2:	8b 45 10             	mov    0x10(%ebp),%eax
 80496c5:	50                   	push   %eax
 80496c6:	8b 45 0c             	mov    0xc(%ebp),%eax
 80496c9:	50                   	push   %eax
 80496ca:	e8 69 f3 ff ff       	call   8048a38 <getopt_long@plt>
 80496cf:	83 c4 20             	add    $0x20,%esp
 80496d2:	89 c0                	mov    %eax,%eax
 80496d4:	89 45 fc             	mov    %eax,-0x4(%ebp)
 80496d7:	83 7d fc ff          	cmpl   $0xffffffff,-0x4(%ebp)
 80496db:	75 03                	jne    80496e0 <parse_args+0x70>
 80496dd:	eb 51                	jmp    8049730 <parse_args+0xc0>
 80496df:	90                   	nop
 80496e0:	8b 45 fc             	mov    -0x4(%ebp),%eax
 80496e3:	83 f8 73             	cmp    $0x73,%eax
 80496e6:	74 08                	je     80496f0 <parse_args+0x80>
 80496e8:	83 f8 76             	cmp    $0x76,%eax
 80496eb:	74 13                	je     8049700 <parse_args+0x90>
 80496ed:	eb 21                	jmp    8049710 <parse_args+0xa0>
 80496ef:	90                   	nop
 80496f0:	c7 45 f8 01 00 00 00 	movl   $0x1,-0x8(%ebp)
 80496f7:	c7 45 e4 01 00 00 00 	movl   $0x1,-0x1c(%ebp)
 80496fe:	eb 20                	jmp    8049720 <parse_args+0xb0>
 8049700:	c7 45 f8 01 00 00 00 	movl   $0x1,-0x8(%ebp)
 8049707:	c7 45 e8 01 00 00 00 	movl   $0x1,-0x18(%ebp)
 804970e:	eb 10                	jmp    8049720 <parse_args+0xb0>
 8049710:	c7 45 f8 01 00 00 00 	movl   $0x1,-0x8(%ebp)
 8049717:	c7 45 ec 01 00 00 00 	movl   $0x1,-0x14(%ebp)
 804971e:	eb 00                	jmp    8049720 <parse_args+0xb0>
 8049720:	83 7d ec 00          	cmpl   $0x0,-0x14(%ebp)
 8049724:	74 02                	je     8049728 <parse_args+0xb8>
 8049726:	eb 08                	jmp    8049730 <parse_args+0xc0>
 8049728:	eb 86                	jmp    80496b0 <parse_args+0x40>
 804972a:	8d b6 00 00 00 00    	lea    0x0(%esi),%esi
 8049730:	83 7d f8 00          	cmpl   $0x0,-0x8(%ebp)
 8049734:	75 2a                	jne    8049760 <parse_args+0xf0>
 8049736:	83 7d 0c 01          	cmpl   $0x1,0xc(%ebp)
 804973a:	7e 24                	jle    8049760 <parse_args+0xf0>
 804973c:	8b 45 10             	mov    0x10(%ebp),%eax
 804973f:	83 c0 04             	add    $0x4,%eax
 8049742:	8b 10                	mov    (%eax),%edx
 8049744:	89 55 f0             	mov    %edx,-0x10(%ebp)
 8049747:	83 7d 0c 02          	cmpl   $0x2,0xc(%ebp)
 804974b:	7e 0b                	jle    8049758 <parse_args+0xe8>
 804974d:	8b 45 10             	mov    0x10(%ebp),%eax
 8049750:	83 c0 08             	add    $0x8,%eax
 8049753:	8b 10                	mov    (%eax),%edx
 8049755:	89 55 f4             	mov    %edx,-0xc(%ebp)
 8049758:	eb 13                	jmp    804976d <parse_args+0xfd>
 804975a:	8d b6 00 00 00 00    	lea    0x0(%esi),%esi
 8049760:	83 7d 0c 01          	cmpl   $0x1,0xc(%ebp)
 8049764:	7f 07                	jg     804976d <parse_args+0xfd>
 8049766:	c7 45 ec 01 00 00 00 	movl   $0x1,-0x14(%ebp)
 804976d:	89 df                	mov    %ebx,%edi
 804976f:	8d 75 e4             	lea    -0x1c(%ebp),%esi
 8049772:	fc                   	cld    
 8049773:	b9 05 00 00 00       	mov    $0x5,%ecx
 8049778:	f3 a5                	rep movsl %ds:(%esi),%es:(%edi)
 804977a:	eb 00                	jmp    804977c <parse_args+0x10c>
 804977c:	89 d8                	mov    %ebx,%eax
 804977e:	8d 65 88             	lea    -0x78(%ebp),%esp
 8049781:	5b                   	pop    %ebx
 8049782:	5e                   	pop    %esi
 8049783:	5f                   	pop    %edi
 8049784:	89 ec                	mov    %ebp,%esp
 8049786:	5d                   	pop    %ebp
 8049787:	c2 04 00             	ret    $0x4
 804978a:	8d b6 00 00 00 00    	lea    0x0(%esi),%esi

08049790 <print_usage>:
 8049790:	55                   	push   %ebp
 8049791:	89 e5                	mov    %esp,%ebp
 8049793:	81 ec 38 02 00 00    	sub    $0x238,%esp
 8049799:	8b 45 08             	mov    0x8(%ebp),%eax
 804979c:	50                   	push   %eax
 804979d:	68 00 9f 04 08       	push   $0x8049f00
 80497a2:	68 80 02 00 00       	push   $0x280
 80497a7:	8d 85 58 fe ff ff    	lea    -0x1a8(%ebp),%eax
 80497ad:	50                   	push   %eax
 80497ae:	e8 a5 f2 ff ff       	call   8048a58 <snprintf@plt>
 80497b3:	83 c4 10             	add    $0x10,%esp
 80497b6:	c7 85 d4 fd ff ff 00 	movl   $0x0,-0x22c(%ebp)
 80497bd:	00 00 00 
 80497c0:	83 bd d4 fd ff ff 02 	cmpl   $0x2,-0x22c(%ebp)
 80497c7:	7e 07                	jle    80497d0 <print_usage+0x40>
 80497c9:	eb 2d                	jmp    80497f8 <print_usage+0x68>
 80497cb:	90                   	nop
 80497cc:	8d 74 26 00          	lea    0x0(%esi,%eiz,1),%esi
 80497d0:	8b 85 d4 fd ff ff    	mov    -0x22c(%ebp),%eax
 80497d6:	50                   	push   %eax
 80497d7:	68 8c 9f 04 08       	push   $0x8049f8c
 80497dc:	68 80 00 00 00       	push   $0x80
 80497e1:	8d 85 d8 fd ff ff    	lea    -0x228(%ebp),%eax
 80497e7:	50                   	push   %eax
 80497e8:	e8 6b f2 ff ff       	call   8048a58 <snprintf@plt>
 80497ed:	83 c4 10             	add    $0x10,%esp
 80497f0:	ff 85 d4 fd ff ff    	incl   -0x22c(%ebp)
 80497f6:	eb c8                	jmp    80497c0 <print_usage+0x30>
 80497f8:	83 c4 f8             	add    $0xfffffff8,%esp
 80497fb:	8d 85 58 fe ff ff    	lea    -0x1a8(%ebp),%eax
 8049801:	50                   	push   %eax
 8049802:	68 a4 9f 04 08       	push   $0x8049fa4
 8049807:	e8 fc f1 ff ff       	call   8048a08 <printf@plt>
 804980c:	83 c4 10             	add    $0x10,%esp
 804980f:	83 c4 f8             	add    $0xfffffff8,%esp
 8049812:	8d 85 d8 fd ff ff    	lea    -0x228(%ebp),%eax
 8049818:	50                   	push   %eax
 8049819:	68 a4 9f 04 08       	push   $0x8049fa4
 804981e:	e8 e5 f1 ff ff       	call   8048a08 <printf@plt>
 8049823:	83 c4 10             	add    $0x10,%esp
 8049826:	89 ec                	mov    %ebp,%esp
 8049828:	5d                   	pop    %ebp
 8049829:	c3                   	ret    
 804982a:	8d b6 00 00 00 00    	lea    0x0(%esi),%esi

08049830 <show_confirmation>:
 8049830:	55                   	push   %ebp
 8049831:	89 e5                	mov    %esp,%ebp
 8049833:	83 ec 18             	sub    $0x18,%esp
 8049836:	e8 75 f7 ff ff       	call   8048fb0 <get_submit_dir>
 804983b:	89 c0                	mov    %eax,%eax
 804983d:	89 45 fc             	mov    %eax,-0x4(%ebp)
 8049840:	6a 00                	push   $0x0
 8049842:	8b 45 fc             	mov    -0x4(%ebp),%eax
 8049845:	50                   	push   %eax
 8049846:	68 a8 9f 04 08       	push   $0x8049fa8
 804984b:	68 ac 9f 04 08       	push   $0x8049fac
 8049850:	e8 2b f4 ff ff       	call   8048c80 <run_cmd>
 8049855:	83 c4 10             	add    $0x10,%esp
 8049858:	31 c0                	xor    %eax,%eax
 804985a:	eb 04                	jmp    8049860 <show_confirmation+0x30>
 804985c:	8d 74 26 00          	lea    0x0(%esi,%eiz,1),%esi
 8049860:	89 ec                	mov    %ebp,%esp
 8049862:	5d                   	pop    %ebp
 8049863:	c3                   	ret    
 8049864:	8d b6 00 00 00 00    	lea    0x0(%esi),%esi
 804986a:	8d bf 00 00 00 00    	lea    0x0(%edi),%edi

08049870 <check_forbidden>:
 8049870:	55                   	push   %ebp
 8049871:	89 e5                	mov    %esp,%ebp
 8049873:	83 ec 18             	sub    $0x18,%esp
 8049876:	83 c4 f4             	add    $0xfffffff4,%esp
 8049879:	6a 01                	push   $0x1
 804987b:	e8 b8 f0 ff ff       	call   8048938 <malloc@plt>
 8049880:	83 c4 10             	add    $0x10,%esp
 8049883:	89 c0                	mov    %eax,%eax
 8049885:	89 45 fc             	mov    %eax,-0x4(%ebp)
 8049888:	83 7d fc 00          	cmpl   $0x0,-0x4(%ebp)
 804988c:	75 22                	jne    80498b0 <check_forbidden+0x40>
 804988e:	83 c4 f8             	add    $0xfffffff8,%esp
 8049891:	68 f1 9c 04 08       	push   $0x8049cf1
 8049896:	a1 80 a3 04 08       	mov    0x804a380,%eax
 804989b:	50                   	push   %eax
 804989c:	e8 37 f0 ff ff       	call   80488d8 <fprintf@plt>
 80498a1:	83 c4 10             	add    $0x10,%esp
 80498a4:	b8 01 00 00 00       	mov    $0x1,%eax
 80498a9:	e9 85 00 00 00       	jmp    8049933 <check_forbidden+0xc3>
 80498ae:	89 f6                	mov    %esi,%esi
 80498b0:	8b 45 fc             	mov    -0x4(%ebp),%eax
 80498b3:	c6 00 2f             	movb   $0x2f,(%eax)
 80498b6:	83 c4 f4             	add    $0xfffffff4,%esp
 80498b9:	68 b4 9f 04 08       	push   $0x8049fb4
 80498be:	e8 45 f1 ff ff       	call   8048a08 <printf@plt>
 80498c3:	83 c4 10             	add    $0x10,%esp
 80498c6:	83 c4 f4             	add    $0xfffffff4,%esp
 80498c9:	8b 45 08             	mov    0x8(%ebp),%eax
 80498cc:	50                   	push   %eax
 80498cd:	e8 36 f1 ff ff       	call   8048a08 <printf@plt>
 80498d2:	83 c4 10             	add    $0x10,%esp
 80498d5:	83 c4 f4             	add    $0xfffffff4,%esp
 80498d8:	68 c6 9f 04 08       	push   $0x8049fc6
 80498dd:	e8 26 f1 ff ff       	call   8048a08 <printf@plt>
 80498e2:	83 c4 10             	add    $0x10,%esp
 80498e5:	83 c4 f8             	add    $0xfffffff8,%esp
 80498e8:	8b 45 fc             	mov    -0x4(%ebp),%eax
 80498eb:	0f be 10             	movsbl (%eax),%edx
 80498ee:	52                   	push   %edx
 80498ef:	8b 45 08             	mov    0x8(%ebp),%eax
 80498f2:	50                   	push   %eax
 80498f3:	e8 50 f0 ff ff       	call   8048948 <index@plt>
 80498f8:	83 c4 10             	add    $0x10,%esp
 80498fb:	89 c0                	mov    %eax,%eax
 80498fd:	85 c0                	test   %eax,%eax
 80498ff:	74 1f                	je     8049920 <check_forbidden+0xb0>
 8049901:	83 c4 f8             	add    $0xfffffff8,%esp
 8049904:	68 c8 9f 04 08       	push   $0x8049fc8
 8049909:	a1 80 a3 04 08       	mov    0x804a380,%eax
 804990e:	50                   	push   %eax
 804990f:	e8 c4 ef ff ff       	call   80488d8 <fprintf@plt>
 8049914:	83 c4 10             	add    $0x10,%esp
 8049917:	b8 01 00 00 00       	mov    $0x1,%eax
 804991c:	eb 15                	jmp    8049933 <check_forbidden+0xc3>
 804991e:	89 f6                	mov    %esi,%esi
 8049920:	83 c4 f4             	add    $0xfffffff4,%esp
 8049923:	8b 45 fc             	mov    -0x4(%ebp),%eax
 8049926:	50                   	push   %eax
 8049927:	e8 4c f1 ff ff       	call   8048a78 <free@plt>
 804992c:	83 c4 10             	add    $0x10,%esp
 804992f:	31 c0                	xor    %eax,%eax
 8049931:	eb 00                	jmp    8049933 <check_forbidden+0xc3>
 8049933:	89 ec                	mov    %ebp,%esp
 8049935:	5d                   	pop    %ebp
 8049936:	c3                   	ret    
 8049937:	89 f6                	mov    %esi,%esi
 8049939:	8d bc 27 00 00 00 00 	lea    0x0(%edi,%eiz,1),%edi

08049940 <main>:
 8049940:	55                   	push   %ebp
 8049941:	89 e5                	mov    %esp,%ebp
 8049943:	83 ec 30             	sub    $0x30,%esp
 8049946:	57                   	push   %edi
 8049947:	56                   	push   %esi
 8049948:	8d 45 e0             	lea    -0x20(%ebp),%eax
 804994b:	83 c4 fc             	add    $0xfffffffc,%esp
 804994e:	8b 55 0c             	mov    0xc(%ebp),%edx
 8049951:	52                   	push   %edx
 8049952:	8b 55 08             	mov    0x8(%ebp),%edx
 8049955:	52                   	push   %edx
 8049956:	50                   	push   %eax
 8049957:	e8 14 fd ff ff       	call   8049670 <parse_args>
 804995c:	83 c4 0c             	add    $0xc,%esp
 804995f:	83 7d e8 00          	cmpl   $0x0,-0x18(%ebp)
 8049963:	74 1b                	je     8049980 <main+0x40>
 8049965:	83 c4 f4             	add    $0xfffffff4,%esp
 8049968:	8b 45 0c             	mov    0xc(%ebp),%eax
 804996b:	8b 10                	mov    (%eax),%edx
 804996d:	52                   	push   %edx
 804996e:	e8 1d fe ff ff       	call   8049790 <print_usage>
 8049973:	83 c4 10             	add    $0x10,%esp
 8049976:	31 c0                	xor    %eax,%eax
 8049978:	e9 1b 01 00 00       	jmp    8049a98 <main+0x158>
 804997d:	8d 76 00             	lea    0x0(%esi),%esi
 8049980:	83 7d e4 00          	cmpl   $0x0,-0x1c(%ebp)
 8049984:	74 1a                	je     80499a0 <main+0x60>
 8049986:	83 c4 f4             	add    $0xfffffff4,%esp
 8049989:	8b 45 0c             	mov    0xc(%ebp),%eax
 804998c:	8b 10                	mov    (%eax),%edx
 804998e:	52                   	push   %edx
 804998f:	e8 7c f2 ff ff       	call   8048c10 <print_version>
 8049994:	83 c4 10             	add    $0x10,%esp
 8049997:	31 c0                	xor    %eax,%eax
 8049999:	e9 fa 00 00 00       	jmp    8049a98 <main+0x158>
 804999e:	89 f6                	mov    %esi,%esi
 80499a0:	83 7d e0 00          	cmpl   $0x0,-0x20(%ebp)
 80499a4:	74 0c                	je     80499b2 <main+0x72>
 80499a6:	e8 85 fe ff ff       	call   8049830 <show_confirmation>
 80499ab:	31 c0                	xor    %eax,%eax
 80499ad:	e9 e6 00 00 00       	jmp    8049a98 <main+0x158>
 80499b2:	83 c4 f4             	add    $0xfffffff4,%esp
 80499b5:	8b 45 ec             	mov    -0x14(%ebp),%eax
 80499b8:	50                   	push   %eax
 80499b9:	e8 b2 fe ff ff       	call   8049870 <check_forbidden>
 80499be:	83 c4 10             	add    $0x10,%esp
 80499c1:	89 c0                	mov    %eax,%eax
 80499c3:	85 c0                	test   %eax,%eax
 80499c5:	74 0a                	je     80499d1 <main+0x91>
 80499c7:	b8 01 00 00 00       	mov    $0x1,%eax
 80499cc:	e9 c7 00 00 00       	jmp    8049a98 <main+0x158>
 80499d1:	e8 ca f7 ff ff       	call   80491a0 <get_logfile_name>
 80499d6:	89 c0                	mov    %eax,%eax
 80499d8:	89 45 f8             	mov    %eax,-0x8(%ebp)
 80499db:	83 7d f8 00          	cmpl   $0x0,-0x8(%ebp)
 80499df:	75 0f                	jne    80499f0 <main+0xb0>
 80499e1:	b8 01 00 00 00       	mov    $0x1,%eax
 80499e6:	e9 ad 00 00 00       	jmp    8049a98 <main+0x158>
 80499eb:	90                   	nop
 80499ec:	8d 74 26 00          	lea    0x0(%esi,%eiz,1),%esi
 80499f0:	c7 45 f4 01 00 00 00 	movl   $0x1,-0xc(%ebp)
 80499f7:	83 c4 f4             	add    $0xfffffff4,%esp
 80499fa:	8b 45 ec             	mov    -0x14(%ebp),%eax
 80499fd:	50                   	push   %eax
 80499fe:	e8 6d fa ff ff       	call   8049470 <check_for_viruses>
 8049a03:	83 c4 10             	add    $0x10,%esp
 8049a06:	89 c0                	mov    %eax,%eax
 8049a08:	85 c0                	test   %eax,%eax
 8049a0a:	74 07                	je     8049a13 <main+0xd3>
 8049a0c:	c7 45 f4 00 00 00 00 	movl   $0x0,-0xc(%ebp)
 8049a13:	83 c4 f8             	add    $0xfffffff8,%esp
 8049a16:	8b 45 f8             	mov    -0x8(%ebp),%eax
 8049a19:	50                   	push   %eax
 8049a1a:	83 c4 ec             	add    $0xffffffec,%esp
 8049a1d:	89 e7                	mov    %esp,%edi
 8049a1f:	8d 75 e0             	lea    -0x20(%ebp),%esi
 8049a22:	fc                   	cld    
 8049a23:	b9 05 00 00 00       	mov    $0x5,%ecx
 8049a28:	f3 a5                	rep movsl %ds:(%esi),%es:(%edi)
 8049a2a:	e8 d1 fb ff ff       	call   8049600 <log_message>
 8049a2f:	83 c4 20             	add    $0x20,%esp
 8049a32:	89 c0                	mov    %eax,%eax
 8049a34:	85 c0                	test   %eax,%eax
 8049a36:	74 08                	je     8049a40 <main+0x100>
 8049a38:	b8 01 00 00 00       	mov    $0x1,%eax
 8049a3d:	eb 59                	jmp    8049a98 <main+0x158>
 8049a3f:	90                   	nop
 8049a40:	83 c4 f4             	add    $0xfffffff4,%esp
 8049a43:	8b 45 ec             	mov    -0x14(%ebp),%eax
 8049a46:	50                   	push   %eax
 8049a47:	e8 84 f6 ff ff       	call   80490d0 <get_dst_name>
 8049a4c:	83 c4 10             	add    $0x10,%esp
 8049a4f:	89 c0                	mov    %eax,%eax
 8049a51:	89 45 fc             	mov    %eax,-0x4(%ebp)
 8049a54:	83 7d f4 00          	cmpl   $0x0,-0xc(%ebp)
 8049a58:	74 26                	je     8049a80 <main+0x140>
 8049a5a:	83 c4 f8             	add    $0xfffffff8,%esp
 8049a5d:	8b 45 fc             	mov    -0x4(%ebp),%eax
 8049a60:	50                   	push   %eax
 8049a61:	8b 45 ec             	mov    -0x14(%ebp),%eax
 8049a64:	50                   	push   %eax
 8049a65:	e8 36 f3 ff ff       	call   8048da0 <copy_file>
 8049a6a:	83 c4 10             	add    $0x10,%esp
 8049a6d:	89 c0                	mov    %eax,%eax
 8049a6f:	85 c0                	test   %eax,%eax
 8049a71:	74 0d                	je     8049a80 <main+0x140>
 8049a73:	b8 01 00 00 00       	mov    $0x1,%eax
 8049a78:	eb 1e                	jmp    8049a98 <main+0x158>
 8049a7a:	8d b6 00 00 00 00    	lea    0x0(%esi),%esi
 8049a80:	83 c4 f4             	add    $0xfffffff4,%esp
 8049a83:	8b 45 fc             	mov    -0x4(%ebp),%eax
 8049a86:	50                   	push   %eax
 8049a87:	e8 ec ef ff ff       	call   8048a78 <free@plt>
 8049a8c:	83 c4 10             	add    $0x10,%esp
 8049a8f:	e8 9c fd ff ff       	call   8049830 <show_confirmation>
 8049a94:	31 c0                	xor    %eax,%eax
 8049a96:	eb 00                	jmp    8049a98 <main+0x158>
 8049a98:	8d 65 c8             	lea    -0x38(%ebp),%esp
 8049a9b:	5e                   	pop    %esi
 8049a9c:	5f                   	pop    %edi
 8049a9d:	89 ec                	mov    %ebp,%esp
 8049a9f:	5d                   	pop    %ebp
 8049aa0:	c3                   	ret    
 8049aa1:	90                   	nop
 8049aa2:	90                   	nop
 8049aa3:	90                   	nop
 8049aa4:	90                   	nop
 8049aa5:	90                   	nop
 8049aa6:	90                   	nop
 8049aa7:	90                   	nop
 8049aa8:	90                   	nop
 8049aa9:	90                   	nop
 8049aaa:	90                   	nop
 8049aab:	90                   	nop
 8049aac:	90                   	nop
 8049aad:	90                   	nop
 8049aae:	90                   	nop
 8049aaf:	90                   	nop

08049ab0 <__libc_csu_fini>:
 8049ab0:	55                   	push   %ebp
 8049ab1:	89 e5                	mov    %esp,%ebp
 8049ab3:	57                   	push   %edi
 8049ab4:	56                   	push   %esi
 8049ab5:	53                   	push   %ebx
 8049ab6:	e8 98 00 00 00       	call   8049b53 <__i686.get_pc_thunk.bx>
 8049abb:	81 c3 11 08 00 00    	add    $0x811,%ebx
 8049ac1:	83 ec 0c             	sub    $0xc,%esp
 8049ac4:	8d 83 24 ff ff ff    	lea    -0xdc(%ebx),%eax
 8049aca:	8d bb 24 ff ff ff    	lea    -0xdc(%ebx),%edi
 8049ad0:	29 f8                	sub    %edi,%eax
 8049ad2:	c1 f8 02             	sar    $0x2,%eax
 8049ad5:	8d 70 ff             	lea    -0x1(%eax),%esi
 8049ad8:	83 fe ff             	cmp    $0xffffffff,%esi
 8049adb:	74 0c                	je     8049ae9 <__libc_csu_fini+0x39>
 8049add:	8d 76 00             	lea    0x0(%esi),%esi
 8049ae0:	ff 14 b7             	call   *(%edi,%esi,4)
 8049ae3:	4e                   	dec    %esi
 8049ae4:	83 fe ff             	cmp    $0xffffffff,%esi
 8049ae7:	75 f7                	jne    8049ae0 <__libc_csu_fini+0x30>
 8049ae9:	8d b4 26 00 00 00 00 	lea    0x0(%esi,%eiz,1),%esi
 8049af0:	e8 e7 00 00 00       	call   8049bdc <_fini>
 8049af5:	83 c4 0c             	add    $0xc,%esp
 8049af8:	5b                   	pop    %ebx
 8049af9:	5e                   	pop    %esi
 8049afa:	5f                   	pop    %edi
 8049afb:	5d                   	pop    %ebp
 8049afc:	c3                   	ret    
 8049afd:	8d 76 00             	lea    0x0(%esi),%esi

08049b00 <__libc_csu_init>:
 8049b00:	55                   	push   %ebp
 8049b01:	89 e5                	mov    %esp,%ebp
 8049b03:	57                   	push   %edi
 8049b04:	56                   	push   %esi
 8049b05:	53                   	push   %ebx
 8049b06:	e8 48 00 00 00       	call   8049b53 <__i686.get_pc_thunk.bx>
 8049b0b:	81 c3 c1 07 00 00    	add    $0x7c1,%ebx
 8049b11:	83 ec 0c             	sub    $0xc,%esp
 8049b14:	e8 67 ed ff ff       	call   8048880 <_init>
 8049b19:	8d 83 24 ff ff ff    	lea    -0xdc(%ebx),%eax
 8049b1f:	8d 93 24 ff ff ff    	lea    -0xdc(%ebx),%edx
 8049b25:	29 d0                	sub    %edx,%eax
 8049b27:	c1 f8 02             	sar    $0x2,%eax
 8049b2a:	89 45 f0             	mov    %eax,-0x10(%ebp)
 8049b2d:	74 1c                	je     8049b4b <__libc_csu_init+0x4b>
 8049b2f:	31 ff                	xor    %edi,%edi
 8049b31:	89 d6                	mov    %edx,%esi
 8049b33:	8d b6 00 00 00 00    	lea    0x0(%esi),%esi
 8049b39:	8d bc 27 00 00 00 00 	lea    0x0(%edi,%eiz,1),%edi
 8049b40:	47                   	inc    %edi
 8049b41:	ff 16                	call   *(%esi)
 8049b43:	83 c6 04             	add    $0x4,%esi
 8049b46:	39 7d f0             	cmp    %edi,-0x10(%ebp)
 8049b49:	75 f5                	jne    8049b40 <__libc_csu_init+0x40>
 8049b4b:	83 c4 0c             	add    $0xc,%esp
 8049b4e:	5b                   	pop    %ebx
 8049b4f:	5e                   	pop    %esi
 8049b50:	5f                   	pop    %edi
 8049b51:	5d                   	pop    %ebp
 8049b52:	c3                   	ret    

08049b53 <__i686.get_pc_thunk.bx>:
 8049b53:	8b 1c 24             	mov    (%esp),%ebx
 8049b56:	c3                   	ret    
 8049b57:	90                   	nop
 8049b58:	90                   	nop
 8049b59:	90                   	nop
 8049b5a:	90                   	nop
 8049b5b:	90                   	nop
 8049b5c:	90                   	nop
 8049b5d:	90                   	nop
 8049b5e:	90                   	nop
 8049b5f:	90                   	nop

08049b60 <__stat>:
 8049b60:	55                   	push   %ebp
 8049b61:	89 e5                	mov    %esp,%ebp
 8049b63:	53                   	push   %ebx
 8049b64:	83 ec 0c             	sub    $0xc,%esp
 8049b67:	8b 45 0c             	mov    0xc(%ebp),%eax
 8049b6a:	e8 e4 ff ff ff       	call   8049b53 <__i686.get_pc_thunk.bx>
 8049b6f:	81 c3 5d 07 00 00    	add    $0x75d,%ebx
 8049b75:	c7 04 24 03 00 00 00 	movl   $0x3,(%esp)
 8049b7c:	89 44 24 08          	mov    %eax,0x8(%esp)
 8049b80:	8b 45 08             	mov    0x8(%ebp),%eax
 8049b83:	89 44 24 04          	mov    %eax,0x4(%esp)
 8049b87:	e8 ec ed ff ff       	call   8048978 <__xstat@plt>
 8049b8c:	83 c4 0c             	add    $0xc,%esp
 8049b8f:	5b                   	pop    %ebx
 8049b90:	5d                   	pop    %ebp
 8049b91:	c3                   	ret    
 8049b92:	90                   	nop
 8049b93:	90                   	nop
 8049b94:	90                   	nop
 8049b95:	90                   	nop
 8049b96:	90                   	nop
 8049b97:	90                   	nop
 8049b98:	90                   	nop
 8049b99:	90                   	nop
 8049b9a:	90                   	nop
 8049b9b:	90                   	nop
 8049b9c:	90                   	nop
 8049b9d:	90                   	nop
 8049b9e:	90                   	nop
 8049b9f:	90                   	nop

08049ba0 <__do_global_ctors_aux>:
 8049ba0:	55                   	push   %ebp
 8049ba1:	89 e5                	mov    %esp,%ebp
 8049ba3:	83 ec 14             	sub    $0x14,%esp
 8049ba6:	53                   	push   %ebx
 8049ba7:	bb f0 a1 04 08       	mov    $0x804a1f0,%ebx
 8049bac:	83 3d f0 a1 04 08 ff 	cmpl   $0xffffffff,0x804a1f0
 8049bb3:	74 0c                	je     8049bc1 <__do_global_ctors_aux+0x21>
 8049bb5:	8b 03                	mov    (%ebx),%eax
 8049bb7:	ff d0                	call   *%eax
 8049bb9:	83 c3 fc             	add    $0xfffffffc,%ebx
 8049bbc:	83 3b ff             	cmpl   $0xffffffff,(%ebx)
 8049bbf:	75 f4                	jne    8049bb5 <__do_global_ctors_aux+0x15>
 8049bc1:	5b                   	pop    %ebx
 8049bc2:	89 ec                	mov    %ebp,%esp
 8049bc4:	5d                   	pop    %ebp
 8049bc5:	c3                   	ret    
 8049bc6:	8d 76 00             	lea    0x0(%esi),%esi
 8049bc9:	8d bc 27 00 00 00 00 	lea    0x0(%edi,%eiz,1),%edi

08049bd0 <init_dummy>:
 8049bd0:	55                   	push   %ebp
 8049bd1:	89 e5                	mov    %esp,%ebp
 8049bd3:	83 ec 08             	sub    $0x8,%esp
 8049bd6:	89 ec                	mov    %ebp,%esp
 8049bd8:	5d                   	pop    %ebp
 8049bd9:	c3                   	ret    
 8049bda:	90                   	nop
 8049bdb:	90                   	nop

Disassembly of section .fini:

08049bdc <_fini>:
 8049bdc:	55                   	push   %ebp
 8049bdd:	89 e5                	mov    %esp,%ebp
 8049bdf:	53                   	push   %ebx
 8049be0:	83 ec 04             	sub    $0x4,%esp
 8049be3:	e8 00 00 00 00       	call   8049be8 <_fini+0xc>
 8049be8:	5b                   	pop    %ebx
 8049be9:	81 c3 e4 06 00 00    	add    $0x6e4,%ebx
 8049bef:	e8 6c ef ff ff       	call   8048b60 <__do_global_dtors_aux>
 8049bf4:	59                   	pop    %ecx
 8049bf5:	5b                   	pop    %ebx
 8049bf6:	c9                   	leave  
 8049bf7:	c3                   	ret    
